(lp0
cbitarray
bitarray
p1
(S'\x06\x01`\x00'
p2
S'big'
p3
tp4
Rp5
(dp6
bag1
(S'\x06\x01`@'
p7
S'big'
p8
tp9
Rp10
(dp11
bag1
(S'\x06\x01a\x00'
p12
S'big'
p13
tp14
Rp15
(dp16
bag1
(S'\x06\x01a@'
p17
S'big'
p18
tp19
Rp20
(dp21
bag1
(S'\x06\x01d\x00'
p22
S'big'
p23
tp24
Rp25
(dp26
bag1
(S'\x06\x01d@'
p27
S'big'
p28
tp29
Rp30
(dp31
bag1
(S'\x06\x01e\x00'
p32
S'big'
p33
tp34
Rp35
(dp36
bag1
(S'\x06\x01e@'
p37
S'big'
p38
tp39
Rp40
(dp41
bag1
(S'\x06\x01 \x00'
p42
S'big'
p43
tp44
Rp45
(dp46
bag1
(S'\x06\x01 @'
p47
S'big'
p48
tp49
Rp50
(dp51
bag1
(S'\x06\x01!\x00'
p52
S'big'
p53
tp54
Rp55
(dp56
bag1
(S'\x06\x01!@'
p57
S'big'
p58
tp59
Rp60
(dp61
bag1
(S'\x06\x01$\x00'
p62
S'big'
p63
tp64
Rp65
(dp66
bag1
(S'\x06\x01$@'
p67
S'big'
p68
tp69
Rp70
(dp71
bag1
(S'\x06\x01%\x00'
p72
S'big'
p73
tp74
Rp75
(dp76
bag1
(S'\x06\x01%@'
p77
S'big'
p78
tp79
Rp80
(dp81
bag1
(S'\x06\x10\x00'
p82
S'big'
p83
tp84
Rp85
(dp86
bag1
(S'\x06\x11 \x00'
p87
S'big'
p88
tp89
Rp90
(dp91
bag1
(S'\x06\x11 @'
p92
S'big'
p93
tp94
Rp95
(dp96
bag1
(S'\x06\x11!\x00'
p97
S'big'
p98
tp99
Rp100
(dp101
bag1
(S'\x06\x11!@'
p102
S'big'
p103
tp104
Rp105
(dp106
bag1
(S'\x06\x11$\x00'
p107
S'big'
p108
tp109
Rp110
(dp111
bag1
(S'\x06\x11$@'
p112
S'big'
p113
tp114
Rp115
(dp116
bag1
(S'\x06\x11%\x00'
p117
S'big'
p118
tp119
Rp120
(dp121
bag1
(S'\x06\x11%@'
p122
S'big'
p123
tp124
Rp125
(dp126
bag1
(S'\x06\x11`\x00'
p127
S'big'
p128
tp129
Rp130
(dp131
bag1
(S'\x06\x11`@'
p132
S'big'
p133
tp134
Rp135
(dp136
bag1
(S'\x06\x11a\x00'
p137
S'big'
p138
tp139
Rp140
(dp141
bag1
(S'\x06\x11a@'
p142
S'big'
p143
tp144
Rp145
(dp146
bag1
(S'\x06\x11d\x00'
p147
S'big'
p148
tp149
Rp150
(dp151
bag1
(S'\x06\x11d@'
p152
S'big'
p153
tp154
Rp155
(dp156
bag1
(S'\x06\x11e\x00'
p157
S'big'
p158
tp159
Rp160
(dp161
bag1
(S'\x06\x11e@'
p162
S'big'
p163
tp164
Rp165
(dp166
bag1
(S'\x06%\x05@'
p167
S'big'
p168
tp169
Rp170
(dp171
bag1
(S'\x06%\x05\x00'
p172
S'big'
p173
tp174
Rp175
(dp176
bag1
(S'\x06%\x04@'
p177
S'big'
p178
tp179
Rp180
(dp181
bag1
(S'\x06%\x04\x00'
p182
S'big'
p183
tp184
Rp185
(dp186
bag1
(S'\x06%\x01@'
p187
S'big'
p188
tp189
Rp190
(dp191
bag1
(S'\x06%\x01\x00'
p192
S'big'
p193
tp194
Rp195
(dp196
bag1
(S'\x06%\x00@'
p197
S'big'
p198
tp199
Rp200
(dp201
bag1
(S'\x06%\x00\x00'
p202
S'big'
p203
tp204
Rp205
(dp206
bag1
(S'\x06%E@'
p207
S'big'
p208
tp209
Rp210
(dp211
bag1
(S'\x06%E\x00'
p212
S'big'
p213
tp214
Rp215
(dp216
bag1
(S'\x06%D@'
p217
S'big'
p218
tp219
Rp220
(dp221
bag1
(S'\x06%D\x00'
p222
S'big'
p223
tp224
Rp225
(dp226
bag1
(S'\x06%A@'
p227
S'big'
p228
tp229
Rp230
(dp231
bag1
(S'\x06%A\x00'
p232
S'big'
p233
tp234
Rp235
(dp236
bag1
(S'\x06%@@'
p237
S'big'
p238
tp239
Rp240
(dp241
bag1
(S'\x06%@\x00'
p242
S'big'
p243
tp244
Rp245
(dp246
bag1
(S'\x06\x15`\x00'
p247
S'big'
p248
tp249
Rp250
(dp251
bag1
(S'\x06\x15`@'
p252
S'big'
p253
tp254
Rp255
(dp256
bag1
(S'\x06\x15a\x00'
p257
S'big'
p258
tp259
Rp260
(dp261
bag1
(S'\x06\x15a@'
p262
S'big'
p263
tp264
Rp265
(dp266
bag1
(S'\x06\x15d\x00'
p267
S'big'
p268
tp269
Rp270
(dp271
bag1
(S'\x06\x15d@'
p272
S'big'
p273
tp274
Rp275
(dp276
bag1
(S'\x06\x15e\x00'
p277
S'big'
p278
tp279
Rp280
(dp281
bag1
(S'\x06\x15e@'
p282
S'big'
p283
tp284
Rp285
(dp286
bag1
(S'\x06\x15 \x00'
p287
S'big'
p288
tp289
Rp290
(dp291
bag1
(S'\x06\x15 @'
p292
S'big'
p293
tp294
Rp295
(dp296
bag1
(S'\x06\x15!\x00'
p297
S'big'
p298
tp299
Rp300
(dp301
bag1
(S'\x06\x15!@'
p302
S'big'
p303
tp304
Rp305
(dp306
bag1
(S'\x06\x15$\x00'
p307
S'big'
p308
tp309
Rp310
(dp311
bag1
(S'\x06\x15$@'
p312
S'big'
p313
tp314
Rp315
(dp316
bag1
(S'\x06\x15%\x00'
p317
S'big'
p318
tp319
Rp320
(dp321
bag1
(S'\x06\x15%@'
p322
S'big'
p323
tp324
Rp325
(dp326
bag1
(S'\x06\x04\x10\x00'
p327
S'big'
p328
tp329
Rp330
(dp331
bag1
(S'\x06\x04\x10@'
p332
S'big'
p333
tp334
Rp335
(dp336
bag1
(S'\x06\x04\x11\x00'
p337
S'big'
p338
tp339
Rp340
(dp341
bag1
(S'\x06\x04\x11@'
p342
S'big'
p343
tp344
Rp345
(dp346
bag1
(S'\x06\x04\x14\x00'
p347
S'big'
p348
tp349
Rp350
(dp351
bag1
(S'\x06\x04\x14@'
p352
S'big'
p353
tp354
Rp355
(dp356
bag1
(S'\x06\x04\x15\x00'
p357
S'big'
p358
tp359
Rp360
(dp361
bag1
(S'\x06\x04\x15@'
p362
S'big'
p363
tp364
Rp365
(dp366
bag1
(S'\x06\x04P\x00'
p367
S'big'
p368
tp369
Rp370
(dp371
bag1
(S'\x06\x04P@'
p372
S'big'
p373
tp374
Rp375
(dp376
bag1
(S'\x06\x04Q\x00'
p377
S'big'
p378
tp379
Rp380
(dp381
bag1
(S'\x06\x04Q@'
p382
S'big'
p383
tp384
Rp385
(dp386
bag1
(S'\x06\x04T\x00'
p387
S'big'
p388
tp389
Rp390
(dp391
bag1
(S'\x06\x04T@'
p392
S'big'
p393
tp394
Rp395
(dp396
bag1
(S'\x06\x04U\x00'
p397
S'big'
p398
tp399
Rp400
(dp401
bag1
(S'\x06\x04U@'
p402
S'big'
p403
tp404
Rp405
(dp406
bag1
(S'\x06!\x15@'
p407
S'big'
p408
tp409
Rp410
(dp411
bag1
(S'\x06!\x15\x00'
p412
S'big'
p413
tp414
Rp415
(dp416
bag1
(S'\x06!\x14@'
p417
S'big'
p418
tp419
Rp420
(dp421
bag1
(S'\x06!\x14\x00'
p422
S'big'
p423
tp424
Rp425
(dp426
bag1
(S'\x06!\x11@'
p427
S'big'
p428
tp429
Rp430
(dp431
bag1
(S'\x06!\x11\x00'
p432
S'big'
p433
tp434
Rp435
(dp436
bag1
(S'\x06!\x10@'
p437
S'big'
p438
tp439
Rp440
(dp441
bag1
(S'\x06!\x10\x00'
p442
S'big'
p443
tp444
Rp445
(dp446
bag1
(S'\x06!U@'
p447
S'big'
p448
tp449
Rp450
(dp451
bag1
(S'\x06!U\x00'
p452
S'big'
p453
tp454
Rp455
(dp456
bag1
(S'\x06!T@'
p457
S'big'
p458
tp459
Rp460
(dp461
bag1
(S'\x06!T\x00'
p462
S'big'
p463
tp464
Rp465
(dp466
bag1
(S'\x06!Q@'
p467
S'big'
p468
tp469
Rp470
(dp471
bag1
(S'\x06!Q\x00'
p472
S'big'
p473
tp474
Rp475
(dp476
bag1
(S'\x06!P@'
p477
S'big'
p478
tp479
Rp480
(dp481
bag1
(S'\x06!P\x00'
p482
S'big'
p483
tp484
Rp485
(dp486
bag1
(S'\x06%U@'
p487
S'big'
p488
tp489
Rp490
(dp491
bag1
(S'\x06%U\x00'
p492
S'big'
p493
tp494
Rp495
(dp496
bag1
(S'\x06%T@'
p497
S'big'
p498
tp499
Rp500
(dp501
bag1
(S'\x06%T\x00'
p502
S'big'
p503
tp504
Rp505
(dp506
bag1
(S'\x06%Q@'
p507
S'big'
p508
tp509
Rp510
(dp511
bag1
(S'\x06%Q\x00'
p512
S'big'
p513
tp514
Rp515
(dp516
bag1
(S'\x06%P@'
p517
S'big'
p518
tp519
Rp520
(dp521
bag1
(S'\x06%P\x00'
p522
S'big'
p523
tp524
Rp525
(dp526
bag1
(S'\x06%\x15@'
p527
S'big'
p528
tp529
Rp530
(dp531
bag1
(S'\x06%\x15\x00'
p532
S'big'
p533
tp534
Rp535
(dp536
bag1
(S'\x06%\x14@'
p537
S'big'
p538
tp539
Rp540
(dp541
bag1
(S'\x06%\x14\x00'
p542
S'big'
p543
tp544
Rp545
(dp546
bag1
(S'\x06%\x11@'
p547
S'big'
p548
tp549
Rp550
(dp551
bag1
(S'\x06%\x11\x00'
p552
S'big'
p553
tp554
Rp555
(dp556
bag1
(S'\x06%\x10@'
p557
S'big'
p558
tp559
Rp560
(dp561
bag1
(S'\x06%\x10\x00'
p562
S'big'
p563
tp564
Rp565
(dp566
bag1
(S'\x06!E@'
p567
S'big'
p568
tp569
Rp570
(dp571
bag1
(S'\x06!E\x00'
p572
S'big'
p573
tp574
Rp575
(dp576
bag1
(S'\x06!D@'
p577
S'big'
p578
tp579
Rp580
(dp581
bag1
(S'\x06!D\x00'
p582
S'big'
p583
tp584
Rp585
(dp586
bag1
(S'\x06!A@'
p587
S'big'
p588
tp589
Rp590
(dp591
bag1
(S'\x06!A\x00'
p592
S'big'
p593
tp594
Rp595
(dp596
bag1
(S'\x06!@@'
p597
S'big'
p598
tp599
Rp600
(dp601
bag1
(S'\x06!@\x00'
p602
S'big'
p603
tp604
Rp605
(dp606
bag1
(S'\x06\x14`\x00'
p607
S'big'
p608
tp609
Rp610
(dp611
bag1
(S'\x06\x14`@'
p612
S'big'
p613
tp614
Rp615
(dp616
bag1
(S'\x06\x14a\x00'
p617
S'big'
p618
tp619
Rp620
(dp621
bag1
(S'\x06\x14a@'
p622
S'big'
p623
tp624
Rp625
(dp626
bag1
(S'\x06\x14d\x00'
p627
S'big'
p628
tp629
Rp630
(dp631
bag1
(S'\x06\x14d@'
p632
S'big'
p633
tp634
Rp635
(dp636
bag1
(S'\x06\x14e\x00'
p637
S'big'
p638
tp639
Rp640
(dp641
bag1
(S'\x06\x14e@'
p642
S'big'
p643
tp644
Rp645
(dp646
bag1
(S'\x06\x10`\x00'
p647
S'big'
p648
tp649
Rp650
(dp651
bag1
(S'\x06\x10`@'
p652
S'big'
p653
tp654
Rp655
(dp656
bag1
(S'\x06\x10a\x00'
p657
S'big'
p658
tp659
Rp660
(dp661
bag1
(S'\x06\x10a@'
p662
S'big'
p663
tp664
Rp665
(dp666
bag1
(S'\x06\x10d\x00'
p667
S'big'
p668
tp669
Rp670
(dp671
bag1
(S'\x06\x10d@'
p672
S'big'
p673
tp674
Rp675
(dp676
bag1
(S'\x06\x10e\x00'
p677
S'big'
p678
tp679
Rp680
(dp681
bag1
(S'\x06\x10e@'
p682
S'big'
p683
tp684
Rp685
(dp686
bag1
(S'\x06\x14\x05@'
p687
S'big'
p688
tp689
Rp690
(dp691
bag1
(S'\x06\x14\x05\x00'
p692
S'big'
p693
tp694
Rp695
(dp696
bag1
(S'\x06\x14\x04@'
p697
S'big'
p698
tp699
Rp700
(dp701
bag1
(S'\x06\x14\x04\x00'
p702
S'big'
p703
tp704
Rp705
(dp706
bag1
(S'\x06\x14\x01@'
p707
S'big'
p708
tp709
Rp710
(dp711
bag1
(S'\x06\x14\x01\x00'
p712
S'big'
p713
tp714
Rp715
(dp716
bag1
(S'\x06\x14\x00@'
p717
S'big'
p718
tp719
Rp720
(dp721
bag1
(S'\x06\x14\x00\x00'
p722
S'big'
p723
tp724
Rp725
(dp726
bag1
(S'\x06\x14E@'
p727
S'big'
p728
tp729
Rp730
(dp731
bag1
(S'\x06\x14E\x00'
p732
S'big'
p733
tp734
Rp735
(dp736
bag1
(S'\x06\x14D@'
p737
S'big'
p738
tp739
Rp740
(dp741
bag1
(S'\x06\x14D\x00'
p742
S'big'
p743
tp744
Rp745
(dp746
bag1
(S'\x06\x14A@'
p747
S'big'
p748
tp749
Rp750
(dp751
bag1
(S'\x06\x14A\x00'
p752
S'big'
p753
tp754
Rp755
(dp756
bag1
(S'\x06\x14@@'
p757
S'big'
p758
tp759
Rp760
(dp761
bag1
(S'\x06\x14@\x00'
p762
S'big'
p763
tp764
Rp765
(dp766
bag1
(S'\x06$E@'
p767
S'big'
p768
tp769
Rp770
(dp771
bag1
(S'\x06$E\x00'
p772
S'big'
p773
tp774
Rp775
(dp776
bag1
(S'\x06$D@'
p777
S'big'
p778
tp779
Rp780
(dp781
bag1
(S'\x06$D\x00'
p782
S'big'
p783
tp784
Rp785
(dp786
bag1
(S'\x06$A@'
p787
S'big'
p788
tp789
Rp790
(dp791
bag1
(S'\x06$A\x00'
p792
S'big'
p793
tp794
Rp795
(dp796
bag1
(S'\x06$@@'
p797
S'big'
p798
tp799
Rp800
(dp801
bag1
(S'\x06$@\x00'
p802
S'big'
p803
tp804
Rp805
(dp806
bag1
(S'\x06\x11\x05@'
p807
S'big'
p808
tp809
Rp810
(dp811
bag1
(S'\x06\x11\x05\x00'
p812
S'big'
p813
tp814
Rp815
(dp816
bag1
(S'\x06\x11\x04@'
p817
S'big'
p818
tp819
Rp820
(dp821
bag1
(S'\x06\x11\x04\x00'
p822
S'big'
p823
tp824
Rp825
(dp826
bag1
(S'\x06\x11\x01@'
p827
S'big'
p828
tp829
Rp830
(dp831
bag1
(S'\x06\x11\x01\x00'
p832
S'big'
p833
tp834
Rp835
(dp836
bag1
(S'\x06\x11\x00@'
p837
S'big'
p838
tp839
Rp840
(dp841
bag1
(S'\x06\x11\x00\x00'
p842
S'big'
p843
tp844
Rp845
(dp846
bag1
(S'\x06\x11E@'
p847
S'big'
p848
tp849
Rp850
(dp851
bag1
(S'\x06\x11E\x00'
p852
S'big'
p853
tp854
Rp855
(dp856
bag1
(S'\x06\x11D@'
p857
S'big'
p858
tp859
Rp860
(dp861
bag1
(S'\x06\x11D\x00'
p862
S'big'
p863
tp864
Rp865
(dp866
bag1
(S'\x06\x11A@'
p867
S'big'
p868
tp869
Rp870
(dp871
bag1
(S'\x06\x11A\x00'
p872
S'big'
p873
tp874
Rp875
(dp876
bag1
(S'\x06\x11@@'
p877
S'big'
p878
tp879
Rp880
(dp881
bag1
(S'\x06\x11@\x00'
p882
S'big'
p883
tp884
Rp885
(dp886
bag1
(S'\x06!\x05@'
p887
S'big'
p888
tp889
Rp890
(dp891
bag1
(S'\x06!\x05\x00'
p892
S'big'
p893
tp894
Rp895
(dp896
bag1
(S'\x06!\x04@'
p897
S'big'
p898
tp899
Rp900
(dp901
bag1
(S'\x06!\x04\x00'
p902
S'big'
p903
tp904
Rp905
(dp906
bag1
(S'\x06!\x01@'
p907
S'big'
p908
tp909
Rp910
(dp911
bag1
(S'\x06!\x01\x00'
p912
S'big'
p913
tp914
Rp915
(dp916
bag1
(S'\x06!\x00@'
p917
S'big'
p918
tp919
Rp920
(dp921
bag1
(S'\x06!\x00\x00'
p922
S'big'
p923
tp924
Rp925
(dp926
bag1
(S'\x06 E@'
p927
S'big'
p928
tp929
Rp930
(dp931
bag1
(S'\x06 E\x00'
p932
S'big'
p933
tp934
Rp935
(dp936
bag1
(S'\x06 D@'
p937
S'big'
p938
tp939
Rp940
(dp941
bag1
(S'\x06 D\x00'
p942
S'big'
p943
tp944
Rp945
(dp946
bag1
(S'\x06 A@'
p947
S'big'
p948
tp949
Rp950
(dp951
bag1
(S'\x06 A\x00'
p952
S'big'
p953
tp954
Rp955
(dp956
bag1
(S'\x06 @@'
p957
S'big'
p958
tp959
Rp960
(dp961
bag1
(S'\x06 @\x00'
p962
S'big'
p963
tp964
Rp965
(dp966
bag1
(S'\x06\x04`\x00'
p967
S'big'
p968
tp969
Rp970
(dp971
bag1
(S'\x06\x04`@'
p972
S'big'
p973
tp974
Rp975
(dp976
bag1
(S'\x06\x04a\x00'
p977
S'big'
p978
tp979
Rp980
(dp981
bag1
(S'\x06\x04a@'
p982
S'big'
p983
tp984
Rp985
(dp986
bag1
(S'\x06\x04d\x00'
p987
S'big'
p988
tp989
Rp990
(dp991
bag1
(S'\x06\x04d@'
p992
S'big'
p993
tp994
Rp995
(dp996
bag1
(S'\x06\x04e\x00'
p997
S'big'
p998
tp999
Rp1000
(dp1001
bag1
(S'\x06\x04e@'
p1002
S'big'
p1003
tp1004
Rp1005
(dp1006
bag1
(S'\x06\x00`\x00'
p1007
S'big'
p1008
tp1009
Rp1010
(dp1011
bag1
(S'\x06\x00`@'
p1012
S'big'
p1013
tp1014
Rp1015
(dp1016
bag1
(S'\x06\x00a\x00'
p1017
S'big'
p1018
tp1019
Rp1020
(dp1021
bag1
(S'\x06\x00a@'
p1022
S'big'
p1023
tp1024
Rp1025
(dp1026
bag1
(S'\x06\x00d\x00'
p1027
S'big'
p1028
tp1029
Rp1030
(dp1031
bag1
(S'\x06\x00d@'
p1032
S'big'
p1033
tp1034
Rp1035
(dp1036
bag1
(S'\x06\x00e\x00'
p1037
S'big'
p1038
tp1039
Rp1040
(dp1041
bag1
(S'\x06\x00e@'
p1042
S'big'
p1043
tp1044
Rp1045
(dp1046
bag1
(S'\x06\x01\x10\x00'
p1047
S'big'
p1048
tp1049
Rp1050
(dp1051
bag1
(S'\x06\x01\x10@'
p1052
S'big'
p1053
tp1054
Rp1055
(dp1056
bag1
(S'\x06\x01\x11\x00'
p1057
S'big'
p1058
tp1059
Rp1060
(dp1061
bag1
(S'\x06\x01\x11@'
p1062
S'big'
p1063
tp1064
Rp1065
(dp1066
bag1
(S'\x06\x01\x14\x00'
p1067
S'big'
p1068
tp1069
Rp1070
(dp1071
bag1
(S'\x06\x01\x14@'
p1072
S'big'
p1073
tp1074
Rp1075
(dp1076
bag1
(S'\x06\x01\x15\x00'
p1077
S'big'
p1078
tp1079
Rp1080
(dp1081
bag1
(S'\x06\x01\x15@'
p1082
S'big'
p1083
tp1084
Rp1085
(dp1086
bag1
(S'\x06\x01P\x00'
p1087
S'big'
p1088
tp1089
Rp1090
(dp1091
bag1
(S'\x06\x01P@'
p1092
S'big'
p1093
tp1094
Rp1095
(dp1096
bag1
(S'\x06\x01Q\x00'
p1097
S'big'
p1098
tp1099
Rp1100
(dp1101
bag1
(S'\x06\x01Q@'
p1102
S'big'
p1103
tp1104
Rp1105
(dp1106
bag1
(S'\x06\x01T\x00'
p1107
S'big'
p1108
tp1109
Rp1110
(dp1111
bag1
(S'\x06\x01T@'
p1112
S'big'
p1113
tp1114
Rp1115
(dp1116
bag1
(S'\x06\x01U\x00'
p1117
S'big'
p1118
tp1119
Rp1120
(dp1121
bag1
(S'\x06\x01U@'
p1122
S'big'
p1123
tp1124
Rp1125
(dp1126
bag1
(S'\x06\x05P\x00'
p1127
S'big'
p1128
tp1129
Rp1130
(dp1131
bag1
(S'\x06\x05P@'
p1132
S'big'
p1133
tp1134
Rp1135
(dp1136
bag1
(S'\x06\x05Q\x00'
p1137
S'big'
p1138
tp1139
Rp1140
(dp1141
bag1
(S'\x06\x05Q@'
p1142
S'big'
p1143
tp1144
Rp1145
(dp1146
bag1
(S'\x06\x05T\x00'
p1147
S'big'
p1148
tp1149
Rp1150
(dp1151
bag1
(S'\x06\x05T@'
p1152
S'big'
p1153
tp1154
Rp1155
(dp1156
bag1
(S'\x06\x05U\x00'
p1157
S'big'
p1158
tp1159
Rp1160
(dp1161
bag1
(S'\x06\x05U@'
p1162
S'big'
p1163
tp1164
Rp1165
(dp1166
bag1
(S'\x06\x04 \x00'
p1167
S'big'
p1168
tp1169
Rp1170
(dp1171
bag1
(S'\x06\x04 @'
p1172
S'big'
p1173
tp1174
Rp1175
(dp1176
bag1
(S'\x06\x04!\x00'
p1177
S'big'
p1178
tp1179
Rp1180
(dp1181
bag1
(S'\x06\x04!@'
p1182
S'big'
p1183
tp1184
Rp1185
(dp1186
bag1
(S'\x06\x04$\x00'
p1187
S'big'
p1188
tp1189
Rp1190
(dp1191
bag1
(S'\x06\x04$@'
p1192
S'big'
p1193
tp1194
Rp1195
(dp1196
bag1
(S'\x06\x04%\x00'
p1197
S'big'
p1198
tp1199
Rp1200
(dp1201
bag1
(S'\x06\x04%@'
p1202
S'big'
p1203
tp1204
Rp1205
(dp1206
bag1
(S'\x06\x14 \x00'
p1207
S'big'
p1208
tp1209
Rp1210
(dp1211
bag1
(S'\x06\x14 @'
p1212
S'big'
p1213
tp1214
Rp1215
(dp1216
bag1
(S'\x06\x14!\x00'
p1217
S'big'
p1218
tp1219
Rp1220
(dp1221
bag1
(S'\x06\x14!@'
p1222
S'big'
p1223
tp1224
Rp1225
(dp1226
bag1
(S'\x06\x14$\x00'
p1227
S'big'
p1228
tp1229
Rp1230
(dp1231
bag1
(S'\x06\x14$@'
p1232
S'big'
p1233
tp1234
Rp1235
(dp1236
bag1
(S'\x06\x14%\x00'
p1237
S'big'
p1238
tp1239
Rp1240
(dp1241
bag1
(S'\x06\x14%@'
p1242
S'big'
p1243
tp1244
Rp1245
(dp1246
bag1
(S'\x06\x05\x10\x00'
p1247
S'big'
p1248
tp1249
Rp1250
(dp1251
bag1
(S'\x06\x05\x10@'
p1252
S'big'
p1253
tp1254
Rp1255
(dp1256
bag1
(S'\x06\x05\x11\x00'
p1257
S'big'
p1258
tp1259
Rp1260
(dp1261
bag1
(S'\x06\x05\x11@'
p1262
S'big'
p1263
tp1264
Rp1265
(dp1266
bag1
(S'\x06\x05\x14\x00'
p1267
S'big'
p1268
tp1269
Rp1270
(dp1271
bag1
(S'\x06\x05\x14@'
p1272
S'big'
p1273
tp1274
Rp1275
(dp1276
bag1
(S'\x06\x05\x15\x00'
p1277
S'big'
p1278
tp1279
Rp1280
(dp1281
bag1
(S'\x06\x05\x15@'
p1282
S'big'
p1283
tp1284
Rp1285
(dp1286
bag1
(S'\x06 U@'
p1287
S'big'
p1288
tp1289
Rp1290
(dp1291
bag1
(S'\x06 U\x00'
p1292
S'big'
p1293
tp1294
Rp1295
(dp1296
bag1
(S'\x06 T@'
p1297
S'big'
p1298
tp1299
Rp1300
(dp1301
bag1
(S'\x06 T\x00'
p1302
S'big'
p1303
tp1304
Rp1305
(dp1306
bag1
(S'\x06 Q@'
p1307
S'big'
p1308
tp1309
Rp1310
(dp1311
bag1
(S'\x06 Q\x00'
p1312
S'big'
p1313
tp1314
Rp1315
(dp1316
bag1
(S'\x06 P@'
p1317
S'big'
p1318
tp1319
Rp1320
(dp1321
bag1
(S'\x06 P\x00'
p1322
S'big'
p1323
tp1324
Rp1325
(dp1326
bag1
(S'\x06\x05 \x00'
p1327
S'big'
p1328
tp1329
Rp1330
(dp1331
bag1
(S'\x06\x05 @'
p1332
S'big'
p1333
tp1334
Rp1335
(dp1336
bag1
(S'\x06\x05!\x00'
p1337
S'big'
p1338
tp1339
Rp1340
(dp1341
bag1
(S'\x06\x05!@'
p1342
S'big'
p1343
tp1344
Rp1345
(dp1346
bag1
(S'\x06\x05$\x00'
p1347
S'big'
p1348
tp1349
Rp1350
(dp1351
bag1
(S'\x06\x05$@'
p1352
S'big'
p1353
tp1354
Rp1355
(dp1356
bag1
(S'\x06\x05%\x00'
p1357
S'big'
p1358
tp1359
Rp1360
(dp1361
bag1
(S'\x06\x05%@'
p1362
S'big'
p1363
tp1364
Rp1365
(dp1366
bag1
(S'\x06 \x00'
p1367
S'big'
p1368
tp1369
Rp1370
(dp1371
bag1
(S'\x06\x05`\x00'
p1372
S'big'
p1373
tp1374
Rp1375
(dp1376
bag1
(S'\x06\x05`@'
p1377
S'big'
p1378
tp1379
Rp1380
(dp1381
bag1
(S'\x06\x05a\x00'
p1382
S'big'
p1383
tp1384
Rp1385
(dp1386
bag1
(S'\x06\x05a@'
p1387
S'big'
p1388
tp1389
Rp1390
(dp1391
bag1
(S'\x06\x05d\x00'
p1392
S'big'
p1393
tp1394
Rp1395
(dp1396
bag1
(S'\x06\x05d@'
p1397
S'big'
p1398
tp1399
Rp1400
(dp1401
bag1
(S'\x06\x05e\x00'
p1402
S'big'
p1403
tp1404
Rp1405
(dp1406
bag1
(S'\x06\x05e@'
p1407
S'big'
p1408
tp1409
Rp1410
(dp1411
bag1
(S'\x06$\x05@'
p1412
S'big'
p1413
tp1414
Rp1415
(dp1416
bag1
(S'\x06$\x05\x00'
p1417
S'big'
p1418
tp1419
Rp1420
(dp1421
bag1
(S'\x06$\x04@'
p1422
S'big'
p1423
tp1424
Rp1425
(dp1426
bag1
(S'\x06$\x04\x00'
p1427
S'big'
p1428
tp1429
Rp1430
(dp1431
bag1
(S'\x06$\x01@'
p1432
S'big'
p1433
tp1434
Rp1435
(dp1436
bag1
(S'\x06$\x01\x00'
p1437
S'big'
p1438
tp1439
Rp1440
(dp1441
bag1
(S'\x06$\x00@'
p1442
S'big'
p1443
tp1444
Rp1445
(dp1446
bag1
(S'\x06$\x00\x00'
p1447
S'big'
p1448
tp1449
Rp1450
(dp1451
bag1
(S'\x06$\x15@'
p1452
S'big'
p1453
tp1454
Rp1455
(dp1456
bag1
(S'\x06$\x15\x00'
p1457
S'big'
p1458
tp1459
Rp1460
(dp1461
bag1
(S'\x06$\x14@'
p1462
S'big'
p1463
tp1464
Rp1465
(dp1466
bag1
(S'\x06$\x14\x00'
p1467
S'big'
p1468
tp1469
Rp1470
(dp1471
bag1
(S'\x06$\x11@'
p1472
S'big'
p1473
tp1474
Rp1475
(dp1476
bag1
(S'\x06$\x11\x00'
p1477
S'big'
p1478
tp1479
Rp1480
(dp1481
bag1
(S'\x06$\x10@'
p1482
S'big'
p1483
tp1484
Rp1485
(dp1486
bag1
(S'\x06$\x10\x00'
p1487
S'big'
p1488
tp1489
Rp1490
(dp1491
bag1
(S'\x06$U@'
p1492
S'big'
p1493
tp1494
Rp1495
(dp1496
bag1
(S'\x06$U\x00'
p1497
S'big'
p1498
tp1499
Rp1500
(dp1501
bag1
(S'\x06$T@'
p1502
S'big'
p1503
tp1504
Rp1505
(dp1506
bag1
(S'\x06$T\x00'
p1507
S'big'
p1508
tp1509
Rp1510
(dp1511
bag1
(S'\x06$Q@'
p1512
S'big'
p1513
tp1514
Rp1515
(dp1516
bag1
(S'\x06$Q\x00'
p1517
S'big'
p1518
tp1519
Rp1520
(dp1521
bag1
(S'\x06$P@'
p1522
S'big'
p1523
tp1524
Rp1525
(dp1526
bag1
(S'\x06$P\x00'
p1527
S'big'
p1528
tp1529
Rp1530
(dp1531
bag1
(S'\x06\x15E@'
p1532
S'big'
p1533
tp1534
Rp1535
(dp1536
bag1
(S'\x06\x15E\x00'
p1537
S'big'
p1538
tp1539
Rp1540
(dp1541
bag1
(S'\x06\x15D@'
p1542
S'big'
p1543
tp1544
Rp1545
(dp1546
bag1
(S'\x06\x15D\x00'
p1547
S'big'
p1548
tp1549
Rp1550
(dp1551
bag1
(S'\x06\x15A@'
p1552
S'big'
p1553
tp1554
Rp1555
(dp1556
bag1
(S'\x06\x15A\x00'
p1557
S'big'
p1558
tp1559
Rp1560
(dp1561
bag1
(S'\x06\x15@@'
p1562
S'big'
p1563
tp1564
Rp1565
(dp1566
bag1
(S'\x06\x15@\x00'
p1567
S'big'
p1568
tp1569
Rp1570
(dp1571
bag1
(S'\x06\x15\x05@'
p1572
S'big'
p1573
tp1574
Rp1575
(dp1576
bag1
(S'\x06\x15\x05\x00'
p1577
S'big'
p1578
tp1579
Rp1580
(dp1581
bag1
(S'\x06\x15\x04@'
p1582
S'big'
p1583
tp1584
Rp1585
(dp1586
bag1
(S'\x06\x15\x04\x00'
p1587
S'big'
p1588
tp1589
Rp1590
(dp1591
bag1
(S'\x06\x15\x01@'
p1592
S'big'
p1593
tp1594
Rp1595
(dp1596
bag1
(S'\x06\x15\x01\x00'
p1597
S'big'
p1598
tp1599
Rp1600
(dp1601
bag1
(S'\x06\x15\x00@'
p1602
S'big'
p1603
tp1604
Rp1605
(dp1606
bag1
(S'\x06\x15\x00\x00'
p1607
S'big'
p1608
tp1609
Rp1610
(dp1611
bag1
(S'\x06\x10E@'
p1612
S'big'
p1613
tp1614
Rp1615
(dp1616
bag1
(S'\x06\x10E\x00'
p1617
S'big'
p1618
tp1619
Rp1620
(dp1621
bag1
(S'\x06\x10D@'
p1622
S'big'
p1623
tp1624
Rp1625
(dp1626
bag1
(S'\x06\x10D\x00'
p1627
S'big'
p1628
tp1629
Rp1630
(dp1631
bag1
(S'\x06\x10A@'
p1632
S'big'
p1633
tp1634
Rp1635
(dp1636
bag1
(S'\x06\x10A\x00'
p1637
S'big'
p1638
tp1639
Rp1640
(dp1641
bag1
(S'\x06\x10@@'
p1642
S'big'
p1643
tp1644
Rp1645
(dp1646
bag1
(S'\x06\x10@\x00'
p1647
S'big'
p1648
tp1649
Rp1650
(dp1651
bag1
(S'\x06\x00\x00'
p1652
S'big'
p1653
tp1654
Rp1655
(dp1656
bag1
(S'\x06\x00P\x00'
p1657
S'big'
p1658
tp1659
Rp1660
(dp1661
bag1
(S'\x06\x00P@'
p1662
S'big'
p1663
tp1664
Rp1665
(dp1666
bag1
(S'\x06\x00Q\x00'
p1667
S'big'
p1668
tp1669
Rp1670
(dp1671
bag1
(S'\x06\x00Q@'
p1672
S'big'
p1673
tp1674
Rp1675
(dp1676
bag1
(S'\x06\x00T\x00'
p1677
S'big'
p1678
tp1679
Rp1680
(dp1681
bag1
(S'\x06\x00T@'
p1682
S'big'
p1683
tp1684
Rp1685
(dp1686
bag1
(S'\x06\x00U\x00'
p1687
S'big'
p1688
tp1689
Rp1690
(dp1691
bag1
(S'\x06\x00U@'
p1692
S'big'
p1693
tp1694
Rp1695
(dp1696
ba.