(lp0
cbitarray
bitarray
p1
(S'\x00\x00'
p2
S'big'
p3
tp4
Rp5
(dp6
bag1
(S'\x02\x11\x14'
p7
S'big'
p8
tp9
Rp10
(dp11
bag1
(S'\x02\x11\x10'
p12
S'big'
p13
tp14
Rp15
(dp16
bag1
(S'\x02\x11\x04'
p17
S'big'
p18
tp19
Rp20
(dp21
bag1
(S'\x02\x11\x00'
p22
S'big'
p23
tp24
Rp25
(dp26
bag1
(S'\x02\x05@'
p27
S'big'
p28
tp29
Rp30
(dp31
bag1
(S'\x02\x05D'
p32
S'big'
p33
tp34
Rp35
(dp36
bag1
(S'\x02\x05P'
p37
S'big'
p38
tp39
Rp40
(dp41
bag1
(S'\x02\x05T'
p42
S'big'
p43
tp44
Rp45
(dp46
bag1
(S'\x02\x04@'
p47
S'big'
p48
tp49
Rp50
(dp51
bag1
(S'\x02\x04D'
p52
S'big'
p53
tp54
Rp55
(dp56
bag1
(S'\x02\x04P'
p57
S'big'
p58
tp59
Rp60
(dp61
bag1
(S'\x02\x04T'
p62
S'big'
p63
tp64
Rp65
(dp66
bag1
(S'\x02\x01@'
p67
S'big'
p68
tp69
Rp70
(dp71
bag1
(S'\x02\x01D'
p72
S'big'
p73
tp74
Rp75
(dp76
bag1
(S'\x02\x01P'
p77
S'big'
p78
tp79
Rp80
(dp81
bag1
(S'\x02\x01T'
p82
S'big'
p83
tp84
Rp85
(dp86
bag1
(S'\x02\x15\x14'
p87
S'big'
p88
tp89
Rp90
(dp91
bag1
(S'\x02\x15\x10'
p92
S'big'
p93
tp94
Rp95
(dp96
bag1
(S'\x02\x15\x04'
p97
S'big'
p98
tp99
Rp100
(dp101
bag1
(S'\x02\x15\x00'
p102
S'big'
p103
tp104
Rp105
(dp106
bag1
(S'\x02\x14\x14'
p107
S'big'
p108
tp109
Rp110
(dp111
bag1
(S'\x02\x14\x10'
p112
S'big'
p113
tp114
Rp115
(dp116
bag1
(S'\x02\x14\x04'
p117
S'big'
p118
tp119
Rp120
(dp121
bag1
(S'\x02\x14\x00'
p122
S'big'
p123
tp124
Rp125
(dp126
bag1
(S'\x00\x10'
p127
S'big'
p128
tp129
Rp130
(dp131
ba.