(lp0
cbitarray
bitarray
p1
(S'\x02\x11\x14'
p2
S'big'
p3
tp4
Rp5
(dp6
bag1
(S'\x02\x11\x10'
p7
S'big'
p8
tp9
Rp10
(dp11
bag1
(S'\x02\x11\x04'
p12
S'big'
p13
tp14
Rp15
(dp16
bag1
(S'\x02\x11\x00'
p17
S'big'
p18
tp19
Rp20
(dp21
bag1
(S'\x04\x01\t\x00'
p22
S'big'
p23
tp24
Rp25
(dp26
bag1
(S'\x04\x01\t\x10'
p27
S'big'
p28
tp29
Rp30
(dp31
bag1
(S'\x04\x01\t '
p32
S'big'
p33
tp34
Rp35
(dp36
bag1
(S'\x04\x01\t@'
p37
S'big'
p38
tp39
Rp40
(dp41
bag1
(S'\x04\x01\tP'
p42
S'big'
p43
tp44
Rp45
(dp46
bag1
(S'\x04\x01\t`'
p47
S'big'
p48
tp49
Rp50
(dp51
bag1
(S'\x04\x01\t\x80'
p52
S'big'
p53
tp54
Rp55
(dp56
bag1
(S'\x04\x01\t\x90'
p57
S'big'
p58
tp59
Rp60
(dp61
bag1
(S'\x04\x01\t\xa0'
p62
S'big'
p63
tp64
Rp65
(dp66
bag1
(S'\x04\x01\x19\x00'
p67
S'big'
p68
tp69
Rp70
(dp71
bag1
(S'\x04\x01\x19\x10'
p72
S'big'
p73
tp74
Rp75
(dp76
bag1
(S'\x04\x01\x19 '
p77
S'big'
p78
tp79
Rp80
(dp81
bag1
(S'\x04\x01\x19@'
p82
S'big'
p83
tp84
Rp85
(dp86
bag1
(S'\x04\x01\x19P'
p87
S'big'
p88
tp89
Rp90
(dp91
bag1
(S'\x04\x01\x19`'
p92
S'big'
p93
tp94
Rp95
(dp96
bag1
(S'\x04\x01\x19\x80'
p97
S'big'
p98
tp99
Rp100
(dp101
bag1
(S'\x04\x01\x19\x90'
p102
S'big'
p103
tp104
Rp105
(dp106
bag1
(S'\x04\x01\x19\xa0'
p107
S'big'
p108
tp109
Rp110
(dp111
bag1
(S'\x04\x01!\x00'
p112
S'big'
p113
tp114
Rp115
(dp116
bag1
(S'\x04\x01!\x10'
p117
S'big'
p118
tp119
Rp120
(dp121
bag1
(S'\x04\x01! '
p122
S'big'
p123
tp124
Rp125
(dp126
bag1
(S'\x04\x01!@'
p127
S'big'
p128
tp129
Rp130
(dp131
bag1
(S'\x04\x01!P'
p132
S'big'
p133
tp134
Rp135
(dp136
bag1
(S'\x04\x01!`'
p137
S'big'
p138
tp139
Rp140
(dp141
bag1
(S'\x04\x01!\x80'
p142
S'big'
p143
tp144
Rp145
(dp146
bag1
(S'\x04\x01!\x90'
p147
S'big'
p148
tp149
Rp150
(dp151
bag1
(S'\x04\x01!\xa0'
p152
S'big'
p153
tp154
Rp155
(dp156
bag1
(S'\x04\x01%\x00'
p157
S'big'
p158
tp159
Rp160
(dp161
bag1
(S'\x04\x01%\x10'
p162
S'big'
p163
tp164
Rp165
(dp166
bag1
(S'\x04\x01% '
p167
S'big'
p168
tp169
Rp170
(dp171
bag1
(S'\x04\x01%@'
p172
S'big'
p173
tp174
Rp175
(dp176
bag1
(S'\x04\x01%P'
p177
S'big'
p178
tp179
Rp180
(dp181
bag1
(S'\x04\x01%`'
p182
S'big'
p183
tp184
Rp185
(dp186
bag1
(S'\x04\x01%\x80'
p187
S'big'
p188
tp189
Rp190
(dp191
bag1
(S'\x04\x01%\x90'
p192
S'big'
p193
tp194
Rp195
(dp196
bag1
(S'\x04\x01%\xa0'
p197
S'big'
p198
tp199
Rp200
(dp201
bag1
(S'\x04\x01)\x00'
p202
S'big'
p203
tp204
Rp205
(dp206
bag1
(S'\x04\x01)\x10'
p207
S'big'
p208
tp209
Rp210
(dp211
bag1
(S'\x04\x01) '
p212
S'big'
p213
tp214
Rp215
(dp216
bag1
(S'\x04\x01)@'
p217
S'big'
p218
tp219
Rp220
(dp221
bag1
(S'\x04\x01)P'
p222
S'big'
p223
tp224
Rp225
(dp226
bag1
(S'\x04\x01)`'
p227
S'big'
p228
tp229
Rp230
(dp231
bag1
(S'\x04\x01)\x80'
p232
S'big'
p233
tp234
Rp235
(dp236
bag1
(S'\x04\x01)\x90'
p237
S'big'
p238
tp239
Rp240
(dp241
bag1
(S'\x04\x01)\xa0'
p242
S'big'
p243
tp244
Rp245
(dp246
bag1
(S'\x04\x06A\x10'
p247
S'big'
p248
tp249
Rp250
(dp251
bag1
(S'\x04\x06A '
p252
S'big'
p253
tp254
Rp255
(dp256
bag1
(S'\x04\x06A@'
p257
S'big'
p258
tp259
Rp260
(dp261
bag1
(S'\x04\x06AP'
p262
S'big'
p263
tp264
Rp265
(dp266
bag1
(S'\x04\x06A`'
p267
S'big'
p268
tp269
Rp270
(dp271
bag1
(S'\x04\x06A\x80'
p272
S'big'
p273
tp274
Rp275
(dp276
bag1
(S'\x04\x06A\x90'
p277
S'big'
p278
tp279
Rp280
(dp281
bag1
(S'\x04\x06A\xa0'
p282
S'big'
p283
tp284
Rp285
(dp286
bag1
(S'\x04\x06E\x00'
p287
S'big'
p288
tp289
Rp290
(dp291
bag1
(S'\x04\x06E@'
p292
S'big'
p293
tp294
Rp295
(dp296
bag1
(S'\x04\x06EP'
p297
S'big'
p298
tp299
Rp300
(dp301
bag1
(S'\x04\x06E`'
p302
S'big'
p303
tp304
Rp305
(dp306
bag1
(S'\x04\x06E\x80'
p307
S'big'
p308
tp309
Rp310
(dp311
bag1
(S'\x04\x06E\x90'
p312
S'big'
p313
tp314
Rp315
(dp316
bag1
(S'\x04\x06E\xa0'
p317
S'big'
p318
tp319
Rp320
(dp321
bag1
(S'\x04\x06I\x00'
p322
S'big'
p323
tp324
Rp325
(dp326
bag1
(S'\x04\x06I@'
p327
S'big'
p328
tp329
Rp330
(dp331
bag1
(S'\x04\x06IP'
p332
S'big'
p333
tp334
Rp335
(dp336
bag1
(S'\x04\x06I`'
p337
S'big'
p338
tp339
Rp340
(dp341
bag1
(S'\x04\x06I\x80'
p342
S'big'
p343
tp344
Rp345
(dp346
bag1
(S'\x04\x06I\x90'
p347
S'big'
p348
tp349
Rp350
(dp351
bag1
(S'\x04\x06I\xa0'
p352
S'big'
p353
tp354
Rp355
(dp356
bag1
(S'\x04\x06Q\x00'
p357
S'big'
p358
tp359
Rp360
(dp361
bag1
(S'\x04\x06Q\x10'
p362
S'big'
p363
tp364
Rp365
(dp366
bag1
(S'\x04\x06Q '
p367
S'big'
p368
tp369
Rp370
(dp371
bag1
(S'\x04\x06QP'
p372
S'big'
p373
tp374
Rp375
(dp376
bag1
(S'\x04\x06Q`'
p377
S'big'
p378
tp379
Rp380
(dp381
bag1
(S'\x04\x06Q\x90'
p382
S'big'
p383
tp384
Rp385
(dp386
bag1
(S'\x04\x06Q\xa0'
p387
S'big'
p388
tp389
Rp390
(dp391
bag1
(S'\x04\x06U\x00'
p392
S'big'
p393
tp394
Rp395
(dp396
bag1
(S'\x04\x06U\x10'
p397
S'big'
p398
tp399
Rp400
(dp401
bag1
(S'\x04\x06U '
p402
S'big'
p403
tp404
Rp405
(dp406
bag1
(S'\x04\x06U@'
p407
S'big'
p408
tp409
Rp410
(dp411
bag1
(S'\x04\x06U\x80'
p412
S'big'
p413
tp414
Rp415
(dp416
bag1
(S'\x04\x06Y\x00'
p417
S'big'
p418
tp419
Rp420
(dp421
bag1
(S'\x04\x06Y\x10'
p422
S'big'
p423
tp424
Rp425
(dp426
bag1
(S'\x04\x06Y '
p427
S'big'
p428
tp429
Rp430
(dp431
bag1
(S'\x04\x06Y@'
p432
S'big'
p433
tp434
Rp435
(dp436
bag1
(S'\x04\x06Y\x80'
p437
S'big'
p438
tp439
Rp440
(dp441
bag1
(S'\x04\x06a\x00'
p442
S'big'
p443
tp444
Rp445
(dp446
bag1
(S'\x04\x06a\x10'
p447
S'big'
p448
tp449
Rp450
(dp451
bag1
(S'\x04\x06a '
p452
S'big'
p453
tp454
Rp455
(dp456
bag1
(S'\x04\x06aP'
p457
S'big'
p458
tp459
Rp460
(dp461
bag1
(S'\x04\x06a`'
p462
S'big'
p463
tp464
Rp465
(dp466
bag1
(S'\x04\x06a\x90'
p467
S'big'
p468
tp469
Rp470
(dp471
bag1
(S'\x04\x06a\xa0'
p472
S'big'
p473
tp474
Rp475
(dp476
bag1
(S'\x04\x06e\x00'
p477
S'big'
p478
tp479
Rp480
(dp481
bag1
(S'\x04\x06e\x10'
p482
S'big'
p483
tp484
Rp485
(dp486
bag1
(S'\x04\x06e '
p487
S'big'
p488
tp489
Rp490
(dp491
bag1
(S'\x04\x06e@'
p492
S'big'
p493
tp494
Rp495
(dp496
bag1
(S'\x04\x06e\x80'
p497
S'big'
p498
tp499
Rp500
(dp501
bag1
(S'\x04\x06i\x00'
p502
S'big'
p503
tp504
Rp505
(dp506
bag1
(S'\x04\x06i\x10'
p507
S'big'
p508
tp509
Rp510
(dp511
bag1
(S'\x04\x06i '
p512
S'big'
p513
tp514
Rp515
(dp516
bag1
(S'\x04\x06i@'
p517
S'big'
p518
tp519
Rp520
(dp521
bag1
(S'\x04\x06i\x80'
p522
S'big'
p523
tp524
Rp525
(dp526
bag1
(S'\x04\x05I\x00'
p527
S'big'
p528
tp529
Rp530
(dp531
bag1
(S'\x04\x05I@'
p532
S'big'
p533
tp534
Rp535
(dp536
bag1
(S'\x04\x05IP'
p537
S'big'
p538
tp539
Rp540
(dp541
bag1
(S'\x04\x05I`'
p542
S'big'
p543
tp544
Rp545
(dp546
bag1
(S'\x04\x05I\x80'
p547
S'big'
p548
tp549
Rp550
(dp551
bag1
(S'\x04\x05I\x90'
p552
S'big'
p553
tp554
Rp555
(dp556
bag1
(S'\x04\x05I\xa0'
p557
S'big'
p558
tp559
Rp560
(dp561
bag1
(S'\x04\x05Y\x00'
p562
S'big'
p563
tp564
Rp565
(dp566
bag1
(S'\x04\x05Y\x10'
p567
S'big'
p568
tp569
Rp570
(dp571
bag1
(S'\x04\x05Y '
p572
S'big'
p573
tp574
Rp575
(dp576
bag1
(S'\x04\x05Y@'
p577
S'big'
p578
tp579
Rp580
(dp581
bag1
(S'\x04\x05Y\x80'
p582
S'big'
p583
tp584
Rp585
(dp586
bag1
(S'\x04\x05a\x00'
p587
S'big'
p588
tp589
Rp590
(dp591
bag1
(S'\x04\x05a\x10'
p592
S'big'
p593
tp594
Rp595
(dp596
bag1
(S'\x04\x05a '
p597
S'big'
p598
tp599
Rp600
(dp601
bag1
(S'\x04\x05aP'
p602
S'big'
p603
tp604
Rp605
(dp606
bag1
(S'\x04\x05a`'
p607
S'big'
p608
tp609
Rp610
(dp611
bag1
(S'\x04\x05a\x90'
p612
S'big'
p613
tp614
Rp615
(dp616
bag1
(S'\x04\x05a\xa0'
p617
S'big'
p618
tp619
Rp620
(dp621
bag1
(S'\x04\x05e\x00'
p622
S'big'
p623
tp624
Rp625
(dp626
bag1
(S'\x04\x05e\x10'
p627
S'big'
p628
tp629
Rp630
(dp631
bag1
(S'\x04\x05e '
p632
S'big'
p633
tp634
Rp635
(dp636
bag1
(S'\x04\x05e@'
p637
S'big'
p638
tp639
Rp640
(dp641
bag1
(S'\x04\x05e\x80'
p642
S'big'
p643
tp644
Rp645
(dp646
bag1
(S'\x04\x05i\x00'
p647
S'big'
p648
tp649
Rp650
(dp651
bag1
(S'\x04\x05i\x10'
p652
S'big'
p653
tp654
Rp655
(dp656
bag1
(S'\x04\x05i '
p657
S'big'
p658
tp659
Rp660
(dp661
bag1
(S'\x04\x05i@'
p662
S'big'
p663
tp664
Rp665
(dp666
bag1
(S'\x04\x05i\x80'
p667
S'big'
p668
tp669
Rp670
(dp671
bag1
(S'\x04\x04I\x00'
p672
S'big'
p673
tp674
Rp675
(dp676
bag1
(S'\x04\x04I@'
p677
S'big'
p678
tp679
Rp680
(dp681
bag1
(S'\x04\x04IP'
p682
S'big'
p683
tp684
Rp685
(dp686
bag1
(S'\x04\x04I`'
p687
S'big'
p688
tp689
Rp690
(dp691
bag1
(S'\x04\x04I\x80'
p692
S'big'
p693
tp694
Rp695
(dp696
bag1
(S'\x04\x04I\x90'
p697
S'big'
p698
tp699
Rp700
(dp701
bag1
(S'\x04\x04I\xa0'
p702
S'big'
p703
tp704
Rp705
(dp706
bag1
(S'\x04\x04Y\x00'
p707
S'big'
p708
tp709
Rp710
(dp711
bag1
(S'\x04\x04Y\x10'
p712
S'big'
p713
tp714
Rp715
(dp716
bag1
(S'\x04\x04Y '
p717
S'big'
p718
tp719
Rp720
(dp721
bag1
(S'\x04\x04Y@'
p722
S'big'
p723
tp724
Rp725
(dp726
bag1
(S'\x04\x04Y\x80'
p727
S'big'
p728
tp729
Rp730
(dp731
bag1
(S'\x04\x04a\x00'
p732
S'big'
p733
tp734
Rp735
(dp736
bag1
(S'\x04\x04a\x10'
p737
S'big'
p738
tp739
Rp740
(dp741
bag1
(S'\x04\x04a '
p742
S'big'
p743
tp744
Rp745
(dp746
bag1
(S'\x04\x04aP'
p747
S'big'
p748
tp749
Rp750
(dp751
bag1
(S'\x04\x04a`'
p752
S'big'
p753
tp754
Rp755
(dp756
bag1
(S'\x04\x04a\x90'
p757
S'big'
p758
tp759
Rp760
(dp761
bag1
(S'\x04\x04a\xa0'
p762
S'big'
p763
tp764
Rp765
(dp766
bag1
(S'\x04\x04e\x00'
p767
S'big'
p768
tp769
Rp770
(dp771
bag1
(S'\x04\x04e\x10'
p772
S'big'
p773
tp774
Rp775
(dp776
bag1
(S'\x04\x04e '
p777
S'big'
p778
tp779
Rp780
(dp781
bag1
(S'\x04\x04e@'
p782
S'big'
p783
tp784
Rp785
(dp786
bag1
(S'\x04\x04e\x80'
p787
S'big'
p788
tp789
Rp790
(dp791
bag1
(S'\x04\x04i\x00'
p792
S'big'
p793
tp794
Rp795
(dp796
bag1
(S'\x04\x04i\x10'
p797
S'big'
p798
tp799
Rp800
(dp801
bag1
(S'\x04\x04i '
p802
S'big'
p803
tp804
Rp805
(dp806
bag1
(S'\x04\x04i@'
p807
S'big'
p808
tp809
Rp810
(dp811
bag1
(S'\x04\x04i\x80'
p812
S'big'
p813
tp814
Rp815
(dp816
bag1
(S'\x04\x11h\xa0'
p817
S'big'
p818
tp819
Rp820
(dp821
bag1
(S'\x04\x11`\xa0'
p822
S'big'
p823
tp824
Rp825
(dp826
bag1
(S'\x04\x11d\xa0'
p827
S'big'
p828
tp829
Rp830
(dp831
bag1
(S'\x04\x11H\xa0'
p832
S'big'
p833
tp834
Rp835
(dp836
bag1
(S'\x04\x11X\xa0'
p837
S'big'
p838
tp839
Rp840
(dp841
bag1
(S'\x04\x11h\x80'
p842
S'big'
p843
tp844
Rp845
(dp846
bag1
(S'\x04\x11`\x80'
p847
S'big'
p848
tp849
Rp850
(dp851
bag1
(S'\x04\x11d\x80'
p852
S'big'
p853
tp854
Rp855
(dp856
bag1
(S'\x04\x11H\x80'
p857
S'big'
p858
tp859
Rp860
(dp861
bag1
(S'\x04\x11X\x80'
p862
S'big'
p863
tp864
Rp865
(dp866
bag1
(S'\x04\x11h\x90'
p867
S'big'
p868
tp869
Rp870
(dp871
bag1
(S'\x04\x11`\x90'
p872
S'big'
p873
tp874
Rp875
(dp876
bag1
(S'\x04\x11d\x90'
p877
S'big'
p878
tp879
Rp880
(dp881
bag1
(S'\x04\x11H\x90'
p882
S'big'
p883
tp884
Rp885
(dp886
bag1
(S'\x04\x11X\x90'
p887
S'big'
p888
tp889
Rp890
(dp891
bag1
(S'\x04\x11h '
p892
S'big'
p893
tp894
Rp895
(dp896
bag1
(S'\x04\x11` '
p897
S'big'
p898
tp899
Rp900
(dp901
bag1
(S'\x04\x11d '
p902
S'big'
p903
tp904
Rp905
(dp906
bag1
(S'\x04\x11H '
p907
S'big'
p908
tp909
Rp910
(dp911
bag1
(S'\x04\x11X '
p912
S'big'
p913
tp914
Rp915
(dp916
bag1
(S'\x04\x11h\x00'
p917
S'big'
p918
tp919
Rp920
(dp921
bag1
(S'\x04\x11`\x00'
p922
S'big'
p923
tp924
Rp925
(dp926
bag1
(S'\x04\x11d\x00'
p927
S'big'
p928
tp929
Rp930
(dp931
bag1
(S'\x04\x11H\x00'
p932
S'big'
p933
tp934
Rp935
(dp936
bag1
(S'\x04\x11X\x00'
p937
S'big'
p938
tp939
Rp940
(dp941
bag1
(S'\x04\x11h\x10'
p942
S'big'
p943
tp944
Rp945
(dp946
bag1
(S'\x04\x11`\x10'
p947
S'big'
p948
tp949
Rp950
(dp951
bag1
(S'\x04\x11d\x10'
p952
S'big'
p953
tp954
Rp955
(dp956
bag1
(S'\x04\x11H\x10'
p957
S'big'
p958
tp959
Rp960
(dp961
bag1
(S'\x04\x11X\x10'
p962
S'big'
p963
tp964
Rp965
(dp966
bag1
(S'\x04\x11h`'
p967
S'big'
p968
tp969
Rp970
(dp971
bag1
(S'\x04\x11``'
p972
S'big'
p973
tp974
Rp975
(dp976
bag1
(S'\x04\x11d`'
p977
S'big'
p978
tp979
Rp980
(dp981
bag1
(S'\x04\x11H`'
p982
S'big'
p983
tp984
Rp985
(dp986
bag1
(S'\x04\x11X`'
p987
S'big'
p988
tp989
Rp990
(dp991
bag1
(S'\x04\x11h@'
p992
S'big'
p993
tp994
Rp995
(dp996
bag1
(S'\x04\x11`@'
p997
S'big'
p998
tp999
Rp1000
(dp1001
bag1
(S'\x04\x11d@'
p1002
S'big'
p1003
tp1004
Rp1005
(dp1006
bag1
(S'\x04\x11H@'
p1007
S'big'
p1008
tp1009
Rp1010
(dp1011
bag1
(S'\x04\x11X@'
p1012
S'big'
p1013
tp1014
Rp1015
(dp1016
bag1
(S'\x04\x11hP'
p1017
S'big'
p1018
tp1019
Rp1020
(dp1021
bag1
(S'\x04\x11`P'
p1022
S'big'
p1023
tp1024
Rp1025
(dp1026
bag1
(S'\x04\x11dP'
p1027
S'big'
p1028
tp1029
Rp1030
(dp1031
bag1
(S'\x04\x11HP'
p1032
S'big'
p1033
tp1034
Rp1035
(dp1036
bag1
(S'\x04\x11XP'
p1037
S'big'
p1038
tp1039
Rp1040
(dp1041
bag1
(S'\x02\x01@'
p1042
S'big'
p1043
tp1044
Rp1045
(dp1046
bag1
(S'\x02\x01D'
p1047
S'big'
p1048
tp1049
Rp1050
(dp1051
bag1
(S'\x02\x01P'
p1052
S'big'
p1053
tp1054
Rp1055
(dp1056
bag1
(S'\x02\x01T'
p1057
S'big'
p1058
tp1059
Rp1060
(dp1061
bag1
(S'\x04\x16\x14@'
p1062
S'big'
p1063
tp1064
Rp1065
(dp1066
bag1
(S'\x04\x16 \xa0'
p1067
S'big'
p1068
tp1069
Rp1070
(dp1071
bag1
(S'\x04\x16\x14\x80'
p1072
S'big'
p1073
tp1074
Rp1075
(dp1076
bag1
(S'\x04\x16\x10\xa0'
p1077
S'big'
p1078
tp1079
Rp1080
(dp1081
bag1
(S'\x04\x16\x14\x10'
p1082
S'big'
p1083
tp1084
Rp1085
(dp1086
bag1
(S'\x04\x16\x08\xa0'
p1087
S'big'
p1088
tp1089
Rp1090
(dp1091
bag1
(S'\x04\x16\x14 '
p1092
S'big'
p1093
tp1094
Rp1095
(dp1096
bag1
(S'\x04\x16\x04\xa0'
p1097
S'big'
p1098
tp1099
Rp1100
(dp1101
bag1
(S'\x04\x16\x14\x00'
p1102
S'big'
p1103
tp1104
Rp1105
(dp1106
bag1
(S'\x04\x16\x00\xa0'
p1107
S'big'
p1108
tp1109
Rp1110
(dp1111
bag1
(S'\x04\x16\x18@'
p1112
S'big'
p1113
tp1114
Rp1115
(dp1116
bag1
(S'\x04\x16 \x90'
p1117
S'big'
p1118
tp1119
Rp1120
(dp1121
bag1
(S'\x04\x16\x18\x80'
p1122
S'big'
p1123
tp1124
Rp1125
(dp1126
bag1
(S'\x04\x16\x10\x90'
p1127
S'big'
p1128
tp1129
Rp1130
(dp1131
bag1
(S'\x04\x16\x18\x10'
p1132
S'big'
p1133
tp1134
Rp1135
(dp1136
bag1
(S'\x04\x16\x08\x90'
p1137
S'big'
p1138
tp1139
Rp1140
(dp1141
bag1
(S'\x04\x16\x18 '
p1142
S'big'
p1143
tp1144
Rp1145
(dp1146
bag1
(S'\x04\x16\x04\x90'
p1147
S'big'
p1148
tp1149
Rp1150
(dp1151
bag1
(S'\x04\x16\x18\x00'
p1152
S'big'
p1153
tp1154
Rp1155
(dp1156
bag1
(S'\x04\x16\x00\x90'
p1157
S'big'
p1158
tp1159
Rp1160
(dp1161
bag1
(S'\x04\x16\x10P'
p1162
S'big'
p1163
tp1164
Rp1165
(dp1166
bag1
(S'\x04\x16(\x80'
p1167
S'big'
p1168
tp1169
Rp1170
(dp1171
bag1
(S'\x04\x16\x10`'
p1172
S'big'
p1173
tp1174
Rp1175
(dp1176
bag1
(S'\x04\x16$\x80'
p1177
S'big'
p1178
tp1179
Rp1180
(dp1181
bag1
(S'\x04\x16\x10\x10'
p1182
S'big'
p1183
tp1184
Rp1185
(dp1186
bag1
(S'\x04\x16\x08\x80'
p1187
S'big'
p1188
tp1189
Rp1190
(dp1191
bag1
(S'\x04\x16\x10 '
p1192
S'big'
p1193
tp1194
Rp1195
(dp1196
bag1
(S'\x04\x16\x04\x80'
p1197
S'big'
p1198
tp1199
Rp1200
(dp1201
bag1
(S'\x04\x16\x10\x00'
p1202
S'big'
p1203
tp1204
Rp1205
(dp1206
bag1
(S'\x04\x16\x00\x80'
p1207
S'big'
p1208
tp1209
Rp1210
(dp1211
bag1
(S'\x04\x16$@'
p1212
S'big'
p1213
tp1214
Rp1215
(dp1216
bag1
(S'\x04\x16 `'
p1217
S'big'
p1218
tp1219
Rp1220
(dp1221
bag1
(S'\x04\x16$\x10'
p1222
S'big'
p1223
tp1224
Rp1225
(dp1226
bag1
(S'\x04\x16\x08`'
p1227
S'big'
p1228
tp1229
Rp1230
(dp1231
bag1
(S'\x04\x16$ '
p1232
S'big'
p1233
tp1234
Rp1235
(dp1236
bag1
(S'\x04\x16\x04`'
p1237
S'big'
p1238
tp1239
Rp1240
(dp1241
bag1
(S'\x04\x16$\x00'
p1242
S'big'
p1243
tp1244
Rp1245
(dp1246
bag1
(S'\x04\x16\x00`'
p1247
S'big'
p1248
tp1249
Rp1250
(dp1251
bag1
(S'\x04\x16(@'
p1252
S'big'
p1253
tp1254
Rp1255
(dp1256
bag1
(S'\x04\x16 P'
p1257
S'big'
p1258
tp1259
Rp1260
(dp1261
bag1
(S'\x04\x16(\x10'
p1262
S'big'
p1263
tp1264
Rp1265
(dp1266
bag1
(S'\x04\x16\x08P'
p1267
S'big'
p1268
tp1269
Rp1270
(dp1271
bag1
(S'\x04\x16( '
p1272
S'big'
p1273
tp1274
Rp1275
(dp1276
bag1
(S'\x04\x16\x04P'
p1277
S'big'
p1278
tp1279
Rp1280
(dp1281
bag1
(S'\x04\x16(\x00'
p1282
S'big'
p1283
tp1284
Rp1285
(dp1286
bag1
(S'\x04\x16\x00P'
p1287
S'big'
p1288
tp1289
Rp1290
(dp1291
bag1
(S'\x04\x16 \x10'
p1292
S'big'
p1293
tp1294
Rp1295
(dp1296
bag1
(S'\x04\x16\x08@'
p1297
S'big'
p1298
tp1299
Rp1300
(dp1301
bag1
(S'\x04\x16  '
p1302
S'big'
p1303
tp1304
Rp1305
(dp1306
bag1
(S'\x04\x16\x04@'
p1307
S'big'
p1308
tp1309
Rp1310
(dp1311
bag1
(S'\x04\x16 \x00'
p1312
S'big'
p1313
tp1314
Rp1315
(dp1316
bag1
(S'\x04\x16\x00@'
p1317
S'big'
p1318
tp1319
Rp1320
(dp1321
bag1
(S'\x04\x16\x04\x00'
p1322
S'big'
p1323
tp1324
Rp1325
(dp1326
bag1
(S'\x04\x16\x00 '
p1327
S'big'
p1328
tp1329
Rp1330
(dp1331
bag1
(S'\x04\x16\x08\x00'
p1332
S'big'
p1333
tp1334
Rp1335
(dp1336
bag1
(S'\x04\x16\x00\x10'
p1337
S'big'
p1338
tp1339
Rp1340
(dp1341
bag1
(S'\x04\x14 \xa0'
p1342
S'big'
p1343
tp1344
Rp1345
(dp1346
bag1
(S'\x04\x14\x08\xa0'
p1347
S'big'
p1348
tp1349
Rp1350
(dp1351
bag1
(S'\x04\x14\x18@'
p1352
S'big'
p1353
tp1354
Rp1355
(dp1356
bag1
(S'\x04\x14 \x90'
p1357
S'big'
p1358
tp1359
Rp1360
(dp1361
bag1
(S'\x04\x14\x18\x80'
p1362
S'big'
p1363
tp1364
Rp1365
(dp1366
bag1
(S'\x04\x14\x18\x10'
p1367
S'big'
p1368
tp1369
Rp1370
(dp1371
bag1
(S'\x04\x14\x08\x90'
p1372
S'big'
p1373
tp1374
Rp1375
(dp1376
bag1
(S'\x04\x14\x18 '
p1377
S'big'
p1378
tp1379
Rp1380
(dp1381
bag1
(S'\x04\x14\x18\x00'
p1382
S'big'
p1383
tp1384
Rp1385
(dp1386
bag1
(S'\x04\x14(\x80'
p1387
S'big'
p1388
tp1389
Rp1390
(dp1391
bag1
(S'\x04\x14$\x80'
p1392
S'big'
p1393
tp1394
Rp1395
(dp1396
bag1
(S'\x04\x14\x08\x80'
p1397
S'big'
p1398
tp1399
Rp1400
(dp1401
bag1
(S'\x04\x14$@'
p1402
S'big'
p1403
tp1404
Rp1405
(dp1406
bag1
(S'\x04\x14 `'
p1407
S'big'
p1408
tp1409
Rp1410
(dp1411
bag1
(S'\x04\x14$\x10'
p1412
S'big'
p1413
tp1414
Rp1415
(dp1416
bag1
(S'\x04\x14\x08`'
p1417
S'big'
p1418
tp1419
Rp1420
(dp1421
bag1
(S'\x04\x14$ '
p1422
S'big'
p1423
tp1424
Rp1425
(dp1426
bag1
(S'\x04\x14$\x00'
p1427
S'big'
p1428
tp1429
Rp1430
(dp1431
bag1
(S'\x04\x14(@'
p1432
S'big'
p1433
tp1434
Rp1435
(dp1436
bag1
(S'\x04\x14 P'
p1437
S'big'
p1438
tp1439
Rp1440
(dp1441
bag1
(S'\x04\x14(\x10'
p1442
S'big'
p1443
tp1444
Rp1445
(dp1446
bag1
(S'\x04\x14\x08P'
p1447
S'big'
p1448
tp1449
Rp1450
(dp1451
bag1
(S'\x04\x14( '
p1452
S'big'
p1453
tp1454
Rp1455
(dp1456
bag1
(S'\x04\x14(\x00'
p1457
S'big'
p1458
tp1459
Rp1460
(dp1461
bag1
(S'\x04\x14 \x10'
p1462
S'big'
p1463
tp1464
Rp1465
(dp1466
bag1
(S'\x04\x14\x08@'
p1467
S'big'
p1468
tp1469
Rp1470
(dp1471
bag1
(S'\x04\x14  '
p1472
S'big'
p1473
tp1474
Rp1475
(dp1476
bag1
(S'\x04\x14 \x00'
p1477
S'big'
p1478
tp1479
Rp1480
(dp1481
bag1
(S'\x04\x14\x08\x00'
p1482
S'big'
p1483
tp1484
Rp1485
(dp1486
bag1
(S'\x04\x15 \xa0'
p1487
S'big'
p1488
tp1489
Rp1490
(dp1491
bag1
(S'\x04\x15\x08\xa0'
p1492
S'big'
p1493
tp1494
Rp1495
(dp1496
bag1
(S'\x04\x15\x18@'
p1497
S'big'
p1498
tp1499
Rp1500
(dp1501
bag1
(S'\x04\x15 \x90'
p1502
S'big'
p1503
tp1504
Rp1505
(dp1506
bag1
(S'\x04\x15\x18\x80'
p1507
S'big'
p1508
tp1509
Rp1510
(dp1511
bag1
(S'\x04\x15\x18\x10'
p1512
S'big'
p1513
tp1514
Rp1515
(dp1516
bag1
(S'\x04\x15\x08\x90'
p1517
S'big'
p1518
tp1519
Rp1520
(dp1521
bag1
(S'\x04\x15\x18 '
p1522
S'big'
p1523
tp1524
Rp1525
(dp1526
bag1
(S'\x04\x15\x18\x00'
p1527
S'big'
p1528
tp1529
Rp1530
(dp1531
bag1
(S'\x04\x15(\x80'
p1532
S'big'
p1533
tp1534
Rp1535
(dp1536
bag1
(S'\x04\x15$\x80'
p1537
S'big'
p1538
tp1539
Rp1540
(dp1541
bag1
(S'\x04\x15\x08\x80'
p1542
S'big'
p1543
tp1544
Rp1545
(dp1546
bag1
(S'\x04\x15$@'
p1547
S'big'
p1548
tp1549
Rp1550
(dp1551
bag1
(S'\x04\x15 `'
p1552
S'big'
p1553
tp1554
Rp1555
(dp1556
bag1
(S'\x04\x15$\x10'
p1557
S'big'
p1558
tp1559
Rp1560
(dp1561
bag1
(S'\x04\x15\x08`'
p1562
S'big'
p1563
tp1564
Rp1565
(dp1566
bag1
(S'\x04\x15$ '
p1567
S'big'
p1568
tp1569
Rp1570
(dp1571
bag1
(S'\x04\x15$\x00'
p1572
S'big'
p1573
tp1574
Rp1575
(dp1576
bag1
(S'\x04\x15(@'
p1577
S'big'
p1578
tp1579
Rp1580
(dp1581
bag1
(S'\x04\x15 P'
p1582
S'big'
p1583
tp1584
Rp1585
(dp1586
bag1
(S'\x04\x15(\x10'
p1587
S'big'
p1588
tp1589
Rp1590
(dp1591
bag1
(S'\x04\x15\x08P'
p1592
S'big'
p1593
tp1594
Rp1595
(dp1596
bag1
(S'\x04\x15( '
p1597
S'big'
p1598
tp1599
Rp1600
(dp1601
bag1
(S'\x04\x15(\x00'
p1602
S'big'
p1603
tp1604
Rp1605
(dp1606
bag1
(S'\x04\x15 \x10'
p1607
S'big'
p1608
tp1609
Rp1610
(dp1611
bag1
(S'\x04\x15\x08@'
p1612
S'big'
p1613
tp1614
Rp1615
(dp1616
bag1
(S'\x04\x15  '
p1617
S'big'
p1618
tp1619
Rp1620
(dp1621
bag1
(S'\x04\x15 \x00'
p1622
S'big'
p1623
tp1624
Rp1625
(dp1626
bag1
(S'\x04\x15\x08\x00'
p1627
S'big'
p1628
tp1629
Rp1630
(dp1631
bag1
(S'\x04\x15\x19@'
p1632
S'big'
p1633
tp1634
Rp1635
(dp1636
bag1
(S'\x04\x15\x19`'
p1637
S'big'
p1638
tp1639
Rp1640
(dp1641
bag1
(S'\x04\x15\x19\x10'
p1642
S'big'
p1643
tp1644
Rp1645
(dp1646
bag1
(S'\x04\x15\x19\x00'
p1647
S'big'
p1648
tp1649
Rp1650
(dp1651
bag1
(S'\x04\x15\x19 '
p1652
S'big'
p1653
tp1654
Rp1655
(dp1656
bag1
(S'\x04\x15\x19\x90'
p1657
S'big'
p1658
tp1659
Rp1660
(dp1661
bag1
(S'\x04\x15\x19\x80'
p1662
S'big'
p1663
tp1664
Rp1665
(dp1666
bag1
(S'\x04\x15\x19\xa0'
p1667
S'big'
p1668
tp1669
Rp1670
(dp1671
bag1
(S'\x04\x15\t@'
p1672
S'big'
p1673
tp1674
Rp1675
(dp1676
bag1
(S'\x04\x15\t`'
p1677
S'big'
p1678
tp1679
Rp1680
(dp1681
bag1
(S'\x04\x15\t\x10'
p1682
S'big'
p1683
tp1684
Rp1685
(dp1686
bag1
(S'\x04\x15\t\x00'
p1687
S'big'
p1688
tp1689
Rp1690
(dp1691
bag1
(S'\x04\x15\t '
p1692
S'big'
p1693
tp1694
Rp1695
(dp1696
bag1
(S'\x04\x15\t\x90'
p1697
S'big'
p1698
tp1699
Rp1700
(dp1701
bag1
(S'\x04\x15\t\x80'
p1702
S'big'
p1703
tp1704
Rp1705
(dp1706
bag1
(S'\x04\x15\t\xa0'
p1707
S'big'
p1708
tp1709
Rp1710
(dp1711
bag1
(S'\x04\x15%@'
p1712
S'big'
p1713
tp1714
Rp1715
(dp1716
bag1
(S'\x04\x15%`'
p1717
S'big'
p1718
tp1719
Rp1720
(dp1721
bag1
(S'\x04\x15%\x10'
p1722
S'big'
p1723
tp1724
Rp1725
(dp1726
bag1
(S'\x04\x15%\x00'
p1727
S'big'
p1728
tp1729
Rp1730
(dp1731
bag1
(S'\x04\x15% '
p1732
S'big'
p1733
tp1734
Rp1735
(dp1736
bag1
(S'\x04\x15%\x90'
p1737
S'big'
p1738
tp1739
Rp1740
(dp1741
bag1
(S'\x04\x15%\x80'
p1742
S'big'
p1743
tp1744
Rp1745
(dp1746
bag1
(S'\x04\x15%\xa0'
p1747
S'big'
p1748
tp1749
Rp1750
(dp1751
bag1
(S'\x04\x15!@'
p1752
S'big'
p1753
tp1754
Rp1755
(dp1756
bag1
(S'\x04\x15!`'
p1757
S'big'
p1758
tp1759
Rp1760
(dp1761
bag1
(S'\x04\x15!\x10'
p1762
S'big'
p1763
tp1764
Rp1765
(dp1766
bag1
(S'\x04\x15!\x00'
p1767
S'big'
p1768
tp1769
Rp1770
(dp1771
bag1
(S'\x04\x15! '
p1772
S'big'
p1773
tp1774
Rp1775
(dp1776
bag1
(S'\x04\x15!\x90'
p1777
S'big'
p1778
tp1779
Rp1780
(dp1781
bag1
(S'\x04\x15!\x80'
p1782
S'big'
p1783
tp1784
Rp1785
(dp1786
bag1
(S'\x04\x15!\xa0'
p1787
S'big'
p1788
tp1789
Rp1790
(dp1791
bag1
(S'\x04\x15)@'
p1792
S'big'
p1793
tp1794
Rp1795
(dp1796
bag1
(S'\x04\x15)`'
p1797
S'big'
p1798
tp1799
Rp1800
(dp1801
bag1
(S'\x04\x15)\x10'
p1802
S'big'
p1803
tp1804
Rp1805
(dp1806
bag1
(S'\x04\x15)\x00'
p1807
S'big'
p1808
tp1809
Rp1810
(dp1811
bag1
(S'\x04\x15) '
p1812
S'big'
p1813
tp1814
Rp1815
(dp1816
bag1
(S'\x04\x15)\x90'
p1817
S'big'
p1818
tp1819
Rp1820
(dp1821
bag1
(S'\x04\x15)\x80'
p1822
S'big'
p1823
tp1824
Rp1825
(dp1826
bag1
(S'\x04\x15)\xa0'
p1827
S'big'
p1828
tp1829
Rp1830
(dp1831
bag1
(S'\x04\x14\x19P'
p1832
S'big'
p1833
tp1834
Rp1835
(dp1836
bag1
(S'\x04\x14\x19\x10'
p1837
S'big'
p1838
tp1839
Rp1840
(dp1841
bag1
(S'\x04\x14\x19\x00'
p1842
S'big'
p1843
tp1844
Rp1845
(dp1846
bag1
(S'\x04\x14\x19 '
p1847
S'big'
p1848
tp1849
Rp1850
(dp1851
bag1
(S'\x04\x14\x19\x90'
p1852
S'big'
p1853
tp1854
Rp1855
(dp1856
bag1
(S'\x04\x14\x19\x80'
p1857
S'big'
p1858
tp1859
Rp1860
(dp1861
bag1
(S'\x04\x14\x19\xa0'
p1862
S'big'
p1863
tp1864
Rp1865
(dp1866
bag1
(S'\x04\x14\tP'
p1867
S'big'
p1868
tp1869
Rp1870
(dp1871
bag1
(S'\x04\x14\t\x10'
p1872
S'big'
p1873
tp1874
Rp1875
(dp1876
bag1
(S'\x04\x14\t\x00'
p1877
S'big'
p1878
tp1879
Rp1880
(dp1881
bag1
(S'\x04\x14\t '
p1882
S'big'
p1883
tp1884
Rp1885
(dp1886
bag1
(S'\x04\x14\t\x90'
p1887
S'big'
p1888
tp1889
Rp1890
(dp1891
bag1
(S'\x04\x14\t\x80'
p1892
S'big'
p1893
tp1894
Rp1895
(dp1896
bag1
(S'\x04\x14\t\xa0'
p1897
S'big'
p1898
tp1899
Rp1900
(dp1901
bag1
(S'\x04\x14%P'
p1902
S'big'
p1903
tp1904
Rp1905
(dp1906
bag1
(S'\x04\x14%\x10'
p1907
S'big'
p1908
tp1909
Rp1910
(dp1911
bag1
(S'\x04\x14%\x00'
p1912
S'big'
p1913
tp1914
Rp1915
(dp1916
bag1
(S'\x04\x14% '
p1917
S'big'
p1918
tp1919
Rp1920
(dp1921
bag1
(S'\x04\x14%\x90'
p1922
S'big'
p1923
tp1924
Rp1925
(dp1926
bag1
(S'\x04\x14%\x80'
p1927
S'big'
p1928
tp1929
Rp1930
(dp1931
bag1
(S'\x04\x14%\xa0'
p1932
S'big'
p1933
tp1934
Rp1935
(dp1936
bag1
(S'\x04\x14!P'
p1937
S'big'
p1938
tp1939
Rp1940
(dp1941
bag1
(S'\x04\x14!\x10'
p1942
S'big'
p1943
tp1944
Rp1945
(dp1946
bag1
(S'\x04\x14!\x00'
p1947
S'big'
p1948
tp1949
Rp1950
(dp1951
bag1
(S'\x04\x14! '
p1952
S'big'
p1953
tp1954
Rp1955
(dp1956
bag1
(S'\x04\x14!\x90'
p1957
S'big'
p1958
tp1959
Rp1960
(dp1961
bag1
(S'\x04\x14!\x80'
p1962
S'big'
p1963
tp1964
Rp1965
(dp1966
bag1
(S'\x04\x14!\xa0'
p1967
S'big'
p1968
tp1969
Rp1970
(dp1971
bag1
(S'\x04\x14)P'
p1972
S'big'
p1973
tp1974
Rp1975
(dp1976
bag1
(S'\x04\x14)\x10'
p1977
S'big'
p1978
tp1979
Rp1980
(dp1981
bag1
(S'\x04\x14)\x00'
p1982
S'big'
p1983
tp1984
Rp1985
(dp1986
bag1
(S'\x04\x14) '
p1987
S'big'
p1988
tp1989
Rp1990
(dp1991
bag1
(S'\x04\x14)\x90'
p1992
S'big'
p1993
tp1994
Rp1995
(dp1996
bag1
(S'\x04\x14)\x80'
p1997
S'big'
p1998
tp1999
Rp2000
(dp2001
bag1
(S'\x04\x14)\xa0'
p2002
S'big'
p2003
tp2004
Rp2005
(dp2006
bag1
(S'\x04\x16\x15P'
p2007
S'big'
p2008
tp2009
Rp2010
(dp2011
bag1
(S'\x04\x16\x15\x10'
p2012
S'big'
p2013
tp2014
Rp2015
(dp2016
bag1
(S'\x04\x16\x15\x00'
p2017
S'big'
p2018
tp2019
Rp2020
(dp2021
bag1
(S'\x04\x16\x15 '
p2022
S'big'
p2023
tp2024
Rp2025
(dp2026
bag1
(S'\x04\x16\x15\x90'
p2027
S'big'
p2028
tp2029
Rp2030
(dp2031
bag1
(S'\x04\x16\x15\x80'
p2032
S'big'
p2033
tp2034
Rp2035
(dp2036
bag1
(S'\x04\x16\x15\xa0'
p2037
S'big'
p2038
tp2039
Rp2040
(dp2041
bag1
(S'\x04\x16\x11P'
p2042
S'big'
p2043
tp2044
Rp2045
(dp2046
bag1
(S'\x04\x16\x11\x10'
p2047
S'big'
p2048
tp2049
Rp2050
(dp2051
bag1
(S'\x04\x16\x11\x00'
p2052
S'big'
p2053
tp2054
Rp2055
(dp2056
bag1
(S'\x04\x16\x11 '
p2057
S'big'
p2058
tp2059
Rp2060
(dp2061
bag1
(S'\x04\x16\x11\x90'
p2062
S'big'
p2063
tp2064
Rp2065
(dp2066
bag1
(S'\x04\x16\x11\x80'
p2067
S'big'
p2068
tp2069
Rp2070
(dp2071
bag1
(S'\x04\x16\x11\xa0'
p2072
S'big'
p2073
tp2074
Rp2075
(dp2076
bag1
(S'\x04\x16\x19P'
p2077
S'big'
p2078
tp2079
Rp2080
(dp2081
bag1
(S'\x04\x16\x19\x10'
p2082
S'big'
p2083
tp2084
Rp2085
(dp2086
bag1
(S'\x04\x16\x19\x00'
p2087
S'big'
p2088
tp2089
Rp2090
(dp2091
bag1
(S'\x04\x16\x19 '
p2092
S'big'
p2093
tp2094
Rp2095
(dp2096
bag1
(S'\x04\x16\x19\x90'
p2097
S'big'
p2098
tp2099
Rp2100
(dp2101
bag1
(S'\x04\x16\x19\x80'
p2102
S'big'
p2103
tp2104
Rp2105
(dp2106
bag1
(S'\x04\x16\x19\xa0'
p2107
S'big'
p2108
tp2109
Rp2110
(dp2111
bag1
(S'\x04\x16\x05P'
p2112
S'big'
p2113
tp2114
Rp2115
(dp2116
bag1
(S'\x04\x16\x05\x10'
p2117
S'big'
p2118
tp2119
Rp2120
(dp2121
bag1
(S'\x04\x16\x05\x00'
p2122
S'big'
p2123
tp2124
Rp2125
(dp2126
bag1
(S'\x04\x16\x05 '
p2127
S'big'
p2128
tp2129
Rp2130
(dp2131
bag1
(S'\x04\x16\x05\x90'
p2132
S'big'
p2133
tp2134
Rp2135
(dp2136
bag1
(S'\x04\x16\x05\x80'
p2137
S'big'
p2138
tp2139
Rp2140
(dp2141
bag1
(S'\x04\x16\x05\xa0'
p2142
S'big'
p2143
tp2144
Rp2145
(dp2146
bag1
(S'\x04\x16\x01P'
p2147
S'big'
p2148
tp2149
Rp2150
(dp2151
bag1
(S'\x04\x16\x01\x10'
p2152
S'big'
p2153
tp2154
Rp2155
(dp2156
bag1
(S'\x04\x16\x01\x00'
p2157
S'big'
p2158
tp2159
Rp2160
(dp2161
bag1
(S'\x04\x16\x01 '
p2162
S'big'
p2163
tp2164
Rp2165
(dp2166
bag1
(S'\x04\x16\x01\x90'
p2167
S'big'
p2168
tp2169
Rp2170
(dp2171
bag1
(S'\x04\x16\x01\x80'
p2172
S'big'
p2173
tp2174
Rp2175
(dp2176
bag1
(S'\x04\x16\x01\xa0'
p2177
S'big'
p2178
tp2179
Rp2180
(dp2181
bag1
(S'\x04\x16\tP'
p2182
S'big'
p2183
tp2184
Rp2185
(dp2186
bag1
(S'\x04\x16\t\x10'
p2187
S'big'
p2188
tp2189
Rp2190
(dp2191
bag1
(S'\x04\x16\t\x00'
p2192
S'big'
p2193
tp2194
Rp2195
(dp2196
bag1
(S'\x04\x16\t '
p2197
S'big'
p2198
tp2199
Rp2200
(dp2201
bag1
(S'\x04\x16\t\x90'
p2202
S'big'
p2203
tp2204
Rp2205
(dp2206
bag1
(S'\x04\x16\t\x80'
p2207
S'big'
p2208
tp2209
Rp2210
(dp2211
bag1
(S'\x04\x16\t\xa0'
p2212
S'big'
p2213
tp2214
Rp2215
(dp2216
bag1
(S'\x04\x16%P'
p2217
S'big'
p2218
tp2219
Rp2220
(dp2221
bag1
(S'\x04\x16%\x10'
p2222
S'big'
p2223
tp2224
Rp2225
(dp2226
bag1
(S'\x04\x16%\x00'
p2227
S'big'
p2228
tp2229
Rp2230
(dp2231
bag1
(S'\x04\x16% '
p2232
S'big'
p2233
tp2234
Rp2235
(dp2236
bag1
(S'\x04\x16%\x90'
p2237
S'big'
p2238
tp2239
Rp2240
(dp2241
bag1
(S'\x04\x16%\x80'
p2242
S'big'
p2243
tp2244
Rp2245
(dp2246
bag1
(S'\x04\x16%\xa0'
p2247
S'big'
p2248
tp2249
Rp2250
(dp2251
bag1
(S'\x04\x16!P'
p2252
S'big'
p2253
tp2254
Rp2255
(dp2256
bag1
(S'\x04\x16!\x10'
p2257
S'big'
p2258
tp2259
Rp2260
(dp2261
bag1
(S'\x04\x16!\x00'
p2262
S'big'
p2263
tp2264
Rp2265
(dp2266
bag1
(S'\x04\x16! '
p2267
S'big'
p2268
tp2269
Rp2270
(dp2271
bag1
(S'\x04\x16!\x90'
p2272
S'big'
p2273
tp2274
Rp2275
(dp2276
bag1
(S'\x04\x16!\x80'
p2277
S'big'
p2278
tp2279
Rp2280
(dp2281
bag1
(S'\x04\x16!\xa0'
p2282
S'big'
p2283
tp2284
Rp2285
(dp2286
bag1
(S'\x04\x16)P'
p2287
S'big'
p2288
tp2289
Rp2290
(dp2291
bag1
(S'\x04\x16)\x10'
p2292
S'big'
p2293
tp2294
Rp2295
(dp2296
bag1
(S'\x04\x16)\x00'
p2297
S'big'
p2298
tp2299
Rp2300
(dp2301
bag1
(S'\x04\x16) '
p2302
S'big'
p2303
tp2304
Rp2305
(dp2306
bag1
(S'\x04\x16)\x90'
p2307
S'big'
p2308
tp2309
Rp2310
(dp2311
bag1
(S'\x04\x16)\x80'
p2312
S'big'
p2313
tp2314
Rp2315
(dp2316
bag1
(S'\x04\x16)\xa0'
p2317
S'big'
p2318
tp2319
Rp2320
(dp2321
bag1
(S'\x04\x16h\xa0'
p2322
S'big'
p2323
tp2324
Rp2325
(dp2326
bag1
(S'\x04\x16`\xa0'
p2327
S'big'
p2328
tp2329
Rp2330
(dp2331
bag1
(S'\x04\x16d\xa0'
p2332
S'big'
p2333
tp2334
Rp2335
(dp2336
bag1
(S'\x04\x16@\xa0'
p2337
S'big'
p2338
tp2339
Rp2340
(dp2341
bag1
(S'\x04\x16D\xa0'
p2342
S'big'
p2343
tp2344
Rp2345
(dp2346
bag1
(S'\x04\x16P\xa0'
p2347
S'big'
p2348
tp2349
Rp2350
(dp2351
bag1
(S'\x04\x16T\xa0'
p2352
S'big'
p2353
tp2354
Rp2355
(dp2356
bag1
(S'\x04\x16h\x80'
p2357
S'big'
p2358
tp2359
Rp2360
(dp2361
bag1
(S'\x04\x16`\x80'
p2362
S'big'
p2363
tp2364
Rp2365
(dp2366
bag1
(S'\x04\x16d\x80'
p2367
S'big'
p2368
tp2369
Rp2370
(dp2371
bag1
(S'\x04\x16@\x80'
p2372
S'big'
p2373
tp2374
Rp2375
(dp2376
bag1
(S'\x04\x16D\x80'
p2377
S'big'
p2378
tp2379
Rp2380
(dp2381
bag1
(S'\x04\x16P\x80'
p2382
S'big'
p2383
tp2384
Rp2385
(dp2386
bag1
(S'\x04\x16T\x80'
p2387
S'big'
p2388
tp2389
Rp2390
(dp2391
bag1
(S'\x04\x16h\x90'
p2392
S'big'
p2393
tp2394
Rp2395
(dp2396
bag1
(S'\x04\x16`\x90'
p2397
S'big'
p2398
tp2399
Rp2400
(dp2401
bag1
(S'\x04\x16d\x90'
p2402
S'big'
p2403
tp2404
Rp2405
(dp2406
bag1
(S'\x04\x16@\x90'
p2407
S'big'
p2408
tp2409
Rp2410
(dp2411
bag1
(S'\x04\x16D\x90'
p2412
S'big'
p2413
tp2414
Rp2415
(dp2416
bag1
(S'\x04\x16P\x90'
p2417
S'big'
p2418
tp2419
Rp2420
(dp2421
bag1
(S'\x04\x16T\x90'
p2422
S'big'
p2423
tp2424
Rp2425
(dp2426
bag1
(S'\x04\x16h '
p2427
S'big'
p2428
tp2429
Rp2430
(dp2431
bag1
(S'\x04\x16` '
p2432
S'big'
p2433
tp2434
Rp2435
(dp2436
bag1
(S'\x04\x16d '
p2437
S'big'
p2438
tp2439
Rp2440
(dp2441
bag1
(S'\x04\x16@ '
p2442
S'big'
p2443
tp2444
Rp2445
(dp2446
bag1
(S'\x04\x16D '
p2447
S'big'
p2448
tp2449
Rp2450
(dp2451
bag1
(S'\x04\x16P '
p2452
S'big'
p2453
tp2454
Rp2455
(dp2456
bag1
(S'\x04\x16T '
p2457
S'big'
p2458
tp2459
Rp2460
(dp2461
bag1
(S'\x04\x16h\x00'
p2462
S'big'
p2463
tp2464
Rp2465
(dp2466
bag1
(S'\x04\x16`\x00'
p2467
S'big'
p2468
tp2469
Rp2470
(dp2471
bag1
(S'\x04\x16d\x00'
p2472
S'big'
p2473
tp2474
Rp2475
(dp2476
bag1
(S'\x04\x16@\x00'
p2477
S'big'
p2478
tp2479
Rp2480
(dp2481
bag1
(S'\x04\x16D\x00'
p2482
S'big'
p2483
tp2484
Rp2485
(dp2486
bag1
(S'\x04\x16P\x00'
p2487
S'big'
p2488
tp2489
Rp2490
(dp2491
bag1
(S'\x04\x16T\x00'
p2492
S'big'
p2493
tp2494
Rp2495
(dp2496
bag1
(S'\x04\x16h\x10'
p2497
S'big'
p2498
tp2499
Rp2500
(dp2501
bag1
(S'\x04\x16`\x10'
p2502
S'big'
p2503
tp2504
Rp2505
(dp2506
bag1
(S'\x04\x16d\x10'
p2507
S'big'
p2508
tp2509
Rp2510
(dp2511
bag1
(S'\x04\x16@\x10'
p2512
S'big'
p2513
tp2514
Rp2515
(dp2516
bag1
(S'\x04\x16D\x10'
p2517
S'big'
p2518
tp2519
Rp2520
(dp2521
bag1
(S'\x04\x16P\x10'
p2522
S'big'
p2523
tp2524
Rp2525
(dp2526
bag1
(S'\x04\x16T\x10'
p2527
S'big'
p2528
tp2529
Rp2530
(dp2531
bag1
(S'\x04\x16h`'
p2532
S'big'
p2533
tp2534
Rp2535
(dp2536
bag1
(S'\x04\x16``'
p2537
S'big'
p2538
tp2539
Rp2540
(dp2541
bag1
(S'\x04\x16d`'
p2542
S'big'
p2543
tp2544
Rp2545
(dp2546
bag1
(S'\x04\x16@`'
p2547
S'big'
p2548
tp2549
Rp2550
(dp2551
bag1
(S'\x04\x16D`'
p2552
S'big'
p2553
tp2554
Rp2555
(dp2556
bag1
(S'\x04\x16P`'
p2557
S'big'
p2558
tp2559
Rp2560
(dp2561
bag1
(S'\x04\x16T`'
p2562
S'big'
p2563
tp2564
Rp2565
(dp2566
bag1
(S'\x04\x16h@'
p2567
S'big'
p2568
tp2569
Rp2570
(dp2571
bag1
(S'\x04\x16`@'
p2572
S'big'
p2573
tp2574
Rp2575
(dp2576
bag1
(S'\x04\x16d@'
p2577
S'big'
p2578
tp2579
Rp2580
(dp2581
bag1
(S'\x04\x16@@'
p2582
S'big'
p2583
tp2584
Rp2585
(dp2586
bag1
(S'\x04\x16D@'
p2587
S'big'
p2588
tp2589
Rp2590
(dp2591
bag1
(S'\x04\x16P@'
p2592
S'big'
p2593
tp2594
Rp2595
(dp2596
bag1
(S'\x04\x16T@'
p2597
S'big'
p2598
tp2599
Rp2600
(dp2601
bag1
(S'\x04\x16hP'
p2602
S'big'
p2603
tp2604
Rp2605
(dp2606
bag1
(S'\x04\x16`P'
p2607
S'big'
p2608
tp2609
Rp2610
(dp2611
bag1
(S'\x04\x16dP'
p2612
S'big'
p2613
tp2614
Rp2615
(dp2616
bag1
(S'\x04\x16@P'
p2617
S'big'
p2618
tp2619
Rp2620
(dp2621
bag1
(S'\x04\x16DP'
p2622
S'big'
p2623
tp2624
Rp2625
(dp2626
bag1
(S'\x04\x16PP'
p2627
S'big'
p2628
tp2629
Rp2630
(dp2631
bag1
(S'\x04\x16TP'
p2632
S'big'
p2633
tp2634
Rp2635
(dp2636
bag1
(S'\x04\x15h\xa0'
p2637
S'big'
p2638
tp2639
Rp2640
(dp2641
bag1
(S'\x04\x15`\xa0'
p2642
S'big'
p2643
tp2644
Rp2645
(dp2646
bag1
(S'\x04\x15d\xa0'
p2647
S'big'
p2648
tp2649
Rp2650
(dp2651
bag1
(S'\x04\x15H\xa0'
p2652
S'big'
p2653
tp2654
Rp2655
(dp2656
bag1
(S'\x04\x15X\xa0'
p2657
S'big'
p2658
tp2659
Rp2660
(dp2661
bag1
(S'\x04\x15h\x80'
p2662
S'big'
p2663
tp2664
Rp2665
(dp2666
bag1
(S'\x04\x15`\x80'
p2667
S'big'
p2668
tp2669
Rp2670
(dp2671
bag1
(S'\x04\x15d\x80'
p2672
S'big'
p2673
tp2674
Rp2675
(dp2676
bag1
(S'\x04\x15H\x80'
p2677
S'big'
p2678
tp2679
Rp2680
(dp2681
bag1
(S'\x04\x15X\x80'
p2682
S'big'
p2683
tp2684
Rp2685
(dp2686
bag1
(S'\x04\x15h\x90'
p2687
S'big'
p2688
tp2689
Rp2690
(dp2691
bag1
(S'\x04\x15`\x90'
p2692
S'big'
p2693
tp2694
Rp2695
(dp2696
bag1
(S'\x04\x15d\x90'
p2697
S'big'
p2698
tp2699
Rp2700
(dp2701
bag1
(S'\x04\x15H\x90'
p2702
S'big'
p2703
tp2704
Rp2705
(dp2706
bag1
(S'\x04\x15X\x90'
p2707
S'big'
p2708
tp2709
Rp2710
(dp2711
bag1
(S'\x04\x15h '
p2712
S'big'
p2713
tp2714
Rp2715
(dp2716
bag1
(S'\x04\x15` '
p2717
S'big'
p2718
tp2719
Rp2720
(dp2721
bag1
(S'\x04\x15d '
p2722
S'big'
p2723
tp2724
Rp2725
(dp2726
bag1
(S'\x04\x15H '
p2727
S'big'
p2728
tp2729
Rp2730
(dp2731
bag1
(S'\x04\x15X '
p2732
S'big'
p2733
tp2734
Rp2735
(dp2736
bag1
(S'\x04\x15h\x00'
p2737
S'big'
p2738
tp2739
Rp2740
(dp2741
bag1
(S'\x04\x15`\x00'
p2742
S'big'
p2743
tp2744
Rp2745
(dp2746
bag1
(S'\x04\x15d\x00'
p2747
S'big'
p2748
tp2749
Rp2750
(dp2751
bag1
(S'\x04\x15H\x00'
p2752
S'big'
p2753
tp2754
Rp2755
(dp2756
bag1
(S'\x04\x15X\x00'
p2757
S'big'
p2758
tp2759
Rp2760
(dp2761
bag1
(S'\x04\x15h\x10'
p2762
S'big'
p2763
tp2764
Rp2765
(dp2766
bag1
(S'\x04\x15`\x10'
p2767
S'big'
p2768
tp2769
Rp2770
(dp2771
bag1
(S'\x04\x15d\x10'
p2772
S'big'
p2773
tp2774
Rp2775
(dp2776
bag1
(S'\x04\x15H\x10'
p2777
S'big'
p2778
tp2779
Rp2780
(dp2781
bag1
(S'\x04\x15X\x10'
p2782
S'big'
p2783
tp2784
Rp2785
(dp2786
bag1
(S'\x04\x15h`'
p2787
S'big'
p2788
tp2789
Rp2790
(dp2791
bag1
(S'\x04\x15``'
p2792
S'big'
p2793
tp2794
Rp2795
(dp2796
bag1
(S'\x04\x15d`'
p2797
S'big'
p2798
tp2799
Rp2800
(dp2801
bag1
(S'\x04\x15H`'
p2802
S'big'
p2803
tp2804
Rp2805
(dp2806
bag1
(S'\x04\x15X`'
p2807
S'big'
p2808
tp2809
Rp2810
(dp2811
bag1
(S'\x04\x15h@'
p2812
S'big'
p2813
tp2814
Rp2815
(dp2816
bag1
(S'\x04\x15`@'
p2817
S'big'
p2818
tp2819
Rp2820
(dp2821
bag1
(S'\x04\x15d@'
p2822
S'big'
p2823
tp2824
Rp2825
(dp2826
bag1
(S'\x04\x15H@'
p2827
S'big'
p2828
tp2829
Rp2830
(dp2831
bag1
(S'\x04\x15X@'
p2832
S'big'
p2833
tp2834
Rp2835
(dp2836
bag1
(S'\x04\x15hP'
p2837
S'big'
p2838
tp2839
Rp2840
(dp2841
bag1
(S'\x04\x15`P'
p2842
S'big'
p2843
tp2844
Rp2845
(dp2846
bag1
(S'\x04\x15dP'
p2847
S'big'
p2848
tp2849
Rp2850
(dp2851
bag1
(S'\x04\x15HP'
p2852
S'big'
p2853
tp2854
Rp2855
(dp2856
bag1
(S'\x04\x15XP'
p2857
S'big'
p2858
tp2859
Rp2860
(dp2861
bag1
(S'\x04\x14h\xa0'
p2862
S'big'
p2863
tp2864
Rp2865
(dp2866
bag1
(S'\x04\x14`\xa0'
p2867
S'big'
p2868
tp2869
Rp2870
(dp2871
bag1
(S'\x04\x14d\xa0'
p2872
S'big'
p2873
tp2874
Rp2875
(dp2876
bag1
(S'\x04\x14H\xa0'
p2877
S'big'
p2878
tp2879
Rp2880
(dp2881
bag1
(S'\x04\x14X\xa0'
p2882
S'big'
p2883
tp2884
Rp2885
(dp2886
bag1
(S'\x04\x14h\x80'
p2887
S'big'
p2888
tp2889
Rp2890
(dp2891
bag1
(S'\x04\x14`\x80'
p2892
S'big'
p2893
tp2894
Rp2895
(dp2896
bag1
(S'\x04\x14d\x80'
p2897
S'big'
p2898
tp2899
Rp2900
(dp2901
bag1
(S'\x04\x14H\x80'
p2902
S'big'
p2903
tp2904
Rp2905
(dp2906
bag1
(S'\x04\x14X\x80'
p2907
S'big'
p2908
tp2909
Rp2910
(dp2911
bag1
(S'\x04\x14h\x90'
p2912
S'big'
p2913
tp2914
Rp2915
(dp2916
bag1
(S'\x04\x14`\x90'
p2917
S'big'
p2918
tp2919
Rp2920
(dp2921
bag1
(S'\x04\x14d\x90'
p2922
S'big'
p2923
tp2924
Rp2925
(dp2926
bag1
(S'\x04\x14H\x90'
p2927
S'big'
p2928
tp2929
Rp2930
(dp2931
bag1
(S'\x04\x14X\x90'
p2932
S'big'
p2933
tp2934
Rp2935
(dp2936
bag1
(S'\x04\x14h '
p2937
S'big'
p2938
tp2939
Rp2940
(dp2941
bag1
(S'\x04\x14` '
p2942
S'big'
p2943
tp2944
Rp2945
(dp2946
bag1
(S'\x04\x14d '
p2947
S'big'
p2948
tp2949
Rp2950
(dp2951
bag1
(S'\x04\x14H '
p2952
S'big'
p2953
tp2954
Rp2955
(dp2956
bag1
(S'\x04\x14X '
p2957
S'big'
p2958
tp2959
Rp2960
(dp2961
bag1
(S'\x04\x14h\x00'
p2962
S'big'
p2963
tp2964
Rp2965
(dp2966
bag1
(S'\x04\x14`\x00'
p2967
S'big'
p2968
tp2969
Rp2970
(dp2971
bag1
(S'\x04\x14d\x00'
p2972
S'big'
p2973
tp2974
Rp2975
(dp2976
bag1
(S'\x04\x14H\x00'
p2977
S'big'
p2978
tp2979
Rp2980
(dp2981
bag1
(S'\x04\x14X\x00'
p2982
S'big'
p2983
tp2984
Rp2985
(dp2986
bag1
(S'\x04\x14h\x10'
p2987
S'big'
p2988
tp2989
Rp2990
(dp2991
bag1
(S'\x04\x14`\x10'
p2992
S'big'
p2993
tp2994
Rp2995
(dp2996
bag1
(S'\x04\x14d\x10'
p2997
S'big'
p2998
tp2999
Rp3000
(dp3001
bag1
(S'\x04\x14H\x10'
p3002
S'big'
p3003
tp3004
Rp3005
(dp3006
bag1
(S'\x04\x14X\x10'
p3007
S'big'
p3008
tp3009
Rp3010
(dp3011
bag1
(S'\x04\x14h`'
p3012
S'big'
p3013
tp3014
Rp3015
(dp3016
bag1
(S'\x04\x14``'
p3017
S'big'
p3018
tp3019
Rp3020
(dp3021
bag1
(S'\x04\x14d`'
p3022
S'big'
p3023
tp3024
Rp3025
(dp3026
bag1
(S'\x04\x14H`'
p3027
S'big'
p3028
tp3029
Rp3030
(dp3031
bag1
(S'\x04\x14X`'
p3032
S'big'
p3033
tp3034
Rp3035
(dp3036
bag1
(S'\x04\x14h@'
p3037
S'big'
p3038
tp3039
Rp3040
(dp3041
bag1
(S'\x04\x14`@'
p3042
S'big'
p3043
tp3044
Rp3045
(dp3046
bag1
(S'\x04\x14d@'
p3047
S'big'
p3048
tp3049
Rp3050
(dp3051
bag1
(S'\x04\x14H@'
p3052
S'big'
p3053
tp3054
Rp3055
(dp3056
bag1
(S'\x04\x14X@'
p3057
S'big'
p3058
tp3059
Rp3060
(dp3061
bag1
(S'\x04\x14hP'
p3062
S'big'
p3063
tp3064
Rp3065
(dp3066
bag1
(S'\x04\x14`P'
p3067
S'big'
p3068
tp3069
Rp3070
(dp3071
bag1
(S'\x04\x14dP'
p3072
S'big'
p3073
tp3074
Rp3075
(dp3076
bag1
(S'\x04\x14HP'
p3077
S'big'
p3078
tp3079
Rp3080
(dp3081
bag1
(S'\x04\x14XP'
p3082
S'big'
p3083
tp3084
Rp3085
(dp3086
bag1
(S'\x00\x00'
p3087
S'big'
p3088
tp3089
Rp3090
(dp3091
bag1
(S'\x04\x04H\x00'
p3092
S'big'
p3093
tp3094
Rp3095
(dp3096
bag1
(S'\x04\x04`\x00'
p3097
S'big'
p3098
tp3099
Rp3100
(dp3101
bag1
(S'\x04\x04h\x00'
p3102
S'big'
p3103
tp3104
Rp3105
(dp3106
bag1
(S'\x04\x04d\x00'
p3107
S'big'
p3108
tp3109
Rp3110
(dp3111
bag1
(S'\x04\x04X\x00'
p3112
S'big'
p3113
tp3114
Rp3115
(dp3116
bag1
(S'\x04\x04H '
p3117
S'big'
p3118
tp3119
Rp3120
(dp3121
bag1
(S'\x04\x04` '
p3122
S'big'
p3123
tp3124
Rp3125
(dp3126
bag1
(S'\x04\x04h '
p3127
S'big'
p3128
tp3129
Rp3130
(dp3131
bag1
(S'\x04\x04d '
p3132
S'big'
p3133
tp3134
Rp3135
(dp3136
bag1
(S'\x04\x04X '
p3137
S'big'
p3138
tp3139
Rp3140
(dp3141
bag1
(S'\x04\x04H\x10'
p3142
S'big'
p3143
tp3144
Rp3145
(dp3146
bag1
(S'\x04\x04`\x10'
p3147
S'big'
p3148
tp3149
Rp3150
(dp3151
bag1
(S'\x04\x04h\x10'
p3152
S'big'
p3153
tp3154
Rp3155
(dp3156
bag1
(S'\x04\x04d\x10'
p3157
S'big'
p3158
tp3159
Rp3160
(dp3161
bag1
(S'\x04\x04X\x10'
p3162
S'big'
p3163
tp3164
Rp3165
(dp3166
bag1
(S'\x04\x04H\x80'
p3167
S'big'
p3168
tp3169
Rp3170
(dp3171
bag1
(S'\x04\x04`\x80'
p3172
S'big'
p3173
tp3174
Rp3175
(dp3176
bag1
(S'\x04\x04h\x80'
p3177
S'big'
p3178
tp3179
Rp3180
(dp3181
bag1
(S'\x04\x04d\x80'
p3182
S'big'
p3183
tp3184
Rp3185
(dp3186
bag1
(S'\x04\x04X\x80'
p3187
S'big'
p3188
tp3189
Rp3190
(dp3191
bag1
(S'\x04\x04H\xa0'
p3192
S'big'
p3193
tp3194
Rp3195
(dp3196
bag1
(S'\x04\x04`\xa0'
p3197
S'big'
p3198
tp3199
Rp3200
(dp3201
bag1
(S'\x04\x04h\xa0'
p3202
S'big'
p3203
tp3204
Rp3205
(dp3206
bag1
(S'\x04\x04d\xa0'
p3207
S'big'
p3208
tp3209
Rp3210
(dp3211
bag1
(S'\x04\x04X\xa0'
p3212
S'big'
p3213
tp3214
Rp3215
(dp3216
bag1
(S'\x04\x04H\x90'
p3217
S'big'
p3218
tp3219
Rp3220
(dp3221
bag1
(S'\x04\x04`\x90'
p3222
S'big'
p3223
tp3224
Rp3225
(dp3226
bag1
(S'\x04\x04h\x90'
p3227
S'big'
p3228
tp3229
Rp3230
(dp3231
bag1
(S'\x04\x04d\x90'
p3232
S'big'
p3233
tp3234
Rp3235
(dp3236
bag1
(S'\x04\x04X\x90'
p3237
S'big'
p3238
tp3239
Rp3240
(dp3241
bag1
(S'\x04\x04HP'
p3242
S'big'
p3243
tp3244
Rp3245
(dp3246
bag1
(S'\x04\x04`P'
p3247
S'big'
p3248
tp3249
Rp3250
(dp3251
bag1
(S'\x04\x04hP'
p3252
S'big'
p3253
tp3254
Rp3255
(dp3256
bag1
(S'\x04\x04dP'
p3257
S'big'
p3258
tp3259
Rp3260
(dp3261
bag1
(S'\x04\x04XP'
p3262
S'big'
p3263
tp3264
Rp3265
(dp3266
bag1
(S'\x04\x05H\x00'
p3267
S'big'
p3268
tp3269
Rp3270
(dp3271
bag1
(S'\x04\x05`\x00'
p3272
S'big'
p3273
tp3274
Rp3275
(dp3276
bag1
(S'\x04\x05h\x00'
p3277
S'big'
p3278
tp3279
Rp3280
(dp3281
bag1
(S'\x04\x05d\x00'
p3282
S'big'
p3283
tp3284
Rp3285
(dp3286
bag1
(S'\x04\x05X\x00'
p3287
S'big'
p3288
tp3289
Rp3290
(dp3291
bag1
(S'\x04\x05H '
p3292
S'big'
p3293
tp3294
Rp3295
(dp3296
bag1
(S'\x04\x05` '
p3297
S'big'
p3298
tp3299
Rp3300
(dp3301
bag1
(S'\x04\x05h '
p3302
S'big'
p3303
tp3304
Rp3305
(dp3306
bag1
(S'\x04\x05d '
p3307
S'big'
p3308
tp3309
Rp3310
(dp3311
bag1
(S'\x04\x05X '
p3312
S'big'
p3313
tp3314
Rp3315
(dp3316
bag1
(S'\x04\x05H\x10'
p3317
S'big'
p3318
tp3319
Rp3320
(dp3321
bag1
(S'\x04\x05`\x10'
p3322
S'big'
p3323
tp3324
Rp3325
(dp3326
bag1
(S'\x04\x05h\x10'
p3327
S'big'
p3328
tp3329
Rp3330
(dp3331
bag1
(S'\x04\x05d\x10'
p3332
S'big'
p3333
tp3334
Rp3335
(dp3336
bag1
(S'\x04\x05X\x10'
p3337
S'big'
p3338
tp3339
Rp3340
(dp3341
bag1
(S'\x04\x05H\x80'
p3342
S'big'
p3343
tp3344
Rp3345
(dp3346
bag1
(S'\x04\x05`\x80'
p3347
S'big'
p3348
tp3349
Rp3350
(dp3351
bag1
(S'\x04\x05h\x80'
p3352
S'big'
p3353
tp3354
Rp3355
(dp3356
bag1
(S'\x04\x05d\x80'
p3357
S'big'
p3358
tp3359
Rp3360
(dp3361
bag1
(S'\x04\x05X\x80'
p3362
S'big'
p3363
tp3364
Rp3365
(dp3366
bag1
(S'\x04\x05H\xa0'
p3367
S'big'
p3368
tp3369
Rp3370
(dp3371
bag1
(S'\x04\x05`\xa0'
p3372
S'big'
p3373
tp3374
Rp3375
(dp3376
bag1
(S'\x04\x05h\xa0'
p3377
S'big'
p3378
tp3379
Rp3380
(dp3381
bag1
(S'\x04\x05d\xa0'
p3382
S'big'
p3383
tp3384
Rp3385
(dp3386
bag1
(S'\x04\x05X\xa0'
p3387
S'big'
p3388
tp3389
Rp3390
(dp3391
bag1
(S'\x04\x05H\x90'
p3392
S'big'
p3393
tp3394
Rp3395
(dp3396
bag1
(S'\x04\x05`\x90'
p3397
S'big'
p3398
tp3399
Rp3400
(dp3401
bag1
(S'\x04\x05h\x90'
p3402
S'big'
p3403
tp3404
Rp3405
(dp3406
bag1
(S'\x04\x05d\x90'
p3407
S'big'
p3408
tp3409
Rp3410
(dp3411
bag1
(S'\x04\x05X\x90'
p3412
S'big'
p3413
tp3414
Rp3415
(dp3416
bag1
(S'\x04\x05H@'
p3417
S'big'
p3418
tp3419
Rp3420
(dp3421
bag1
(S'\x04\x05`@'
p3422
S'big'
p3423
tp3424
Rp3425
(dp3426
bag1
(S'\x04\x05h@'
p3427
S'big'
p3428
tp3429
Rp3430
(dp3431
bag1
(S'\x04\x05d@'
p3432
S'big'
p3433
tp3434
Rp3435
(dp3436
bag1
(S'\x04\x05X@'
p3437
S'big'
p3438
tp3439
Rp3440
(dp3441
bag1
(S'\x04\x05H`'
p3442
S'big'
p3443
tp3444
Rp3445
(dp3446
bag1
(S'\x04\x05``'
p3447
S'big'
p3448
tp3449
Rp3450
(dp3451
bag1
(S'\x04\x05h`'
p3452
S'big'
p3453
tp3454
Rp3455
(dp3456
bag1
(S'\x04\x05d`'
p3457
S'big'
p3458
tp3459
Rp3460
(dp3461
bag1
(S'\x04\x05X`'
p3462
S'big'
p3463
tp3464
Rp3465
(dp3466
bag1
(S'\x04\x06@\x00'
p3467
S'big'
p3468
tp3469
Rp3470
(dp3471
bag1
(S'\x04\x06H\x00'
p3472
S'big'
p3473
tp3474
Rp3475
(dp3476
bag1
(S'\x04\x06D\x00'
p3477
S'big'
p3478
tp3479
Rp3480
(dp3481
bag1
(S'\x04\x06`\x00'
p3482
S'big'
p3483
tp3484
Rp3485
(dp3486
bag1
(S'\x04\x06h\x00'
p3487
S'big'
p3488
tp3489
Rp3490
(dp3491
bag1
(S'\x04\x06d\x00'
p3492
S'big'
p3493
tp3494
Rp3495
(dp3496
bag1
(S'\x04\x06P\x00'
p3497
S'big'
p3498
tp3499
Rp3500
(dp3501
bag1
(S'\x04\x06X\x00'
p3502
S'big'
p3503
tp3504
Rp3505
(dp3506
bag1
(S'\x04\x06T\x00'
p3507
S'big'
p3508
tp3509
Rp3510
(dp3511
bag1
(S'\x04\x06@ '
p3512
S'big'
p3513
tp3514
Rp3515
(dp3516
bag1
(S'\x04\x06H '
p3517
S'big'
p3518
tp3519
Rp3520
(dp3521
bag1
(S'\x04\x06D '
p3522
S'big'
p3523
tp3524
Rp3525
(dp3526
bag1
(S'\x04\x06` '
p3527
S'big'
p3528
tp3529
Rp3530
(dp3531
bag1
(S'\x04\x06h '
p3532
S'big'
p3533
tp3534
Rp3535
(dp3536
bag1
(S'\x04\x06d '
p3537
S'big'
p3538
tp3539
Rp3540
(dp3541
bag1
(S'\x04\x06P '
p3542
S'big'
p3543
tp3544
Rp3545
(dp3546
bag1
(S'\x04\x06X '
p3547
S'big'
p3548
tp3549
Rp3550
(dp3551
bag1
(S'\x04\x06T '
p3552
S'big'
p3553
tp3554
Rp3555
(dp3556
bag1
(S'\x04\x06@\x10'
p3557
S'big'
p3558
tp3559
Rp3560
(dp3561
bag1
(S'\x04\x06H\x10'
p3562
S'big'
p3563
tp3564
Rp3565
(dp3566
bag1
(S'\x04\x06D\x10'
p3567
S'big'
p3568
tp3569
Rp3570
(dp3571
bag1
(S'\x04\x06`\x10'
p3572
S'big'
p3573
tp3574
Rp3575
(dp3576
bag1
(S'\x04\x06h\x10'
p3577
S'big'
p3578
tp3579
Rp3580
(dp3581
bag1
(S'\x04\x06d\x10'
p3582
S'big'
p3583
tp3584
Rp3585
(dp3586
bag1
(S'\x04\x06P\x10'
p3587
S'big'
p3588
tp3589
Rp3590
(dp3591
bag1
(S'\x04\x06X\x10'
p3592
S'big'
p3593
tp3594
Rp3595
(dp3596
bag1
(S'\x04\x06T\x10'
p3597
S'big'
p3598
tp3599
Rp3600
(dp3601
bag1
(S'\x04\x06@\x80'
p3602
S'big'
p3603
tp3604
Rp3605
(dp3606
bag1
(S'\x04\x06H\x80'
p3607
S'big'
p3608
tp3609
Rp3610
(dp3611
bag1
(S'\x04\x06D\x80'
p3612
S'big'
p3613
tp3614
Rp3615
(dp3616
bag1
(S'\x04\x06`\x80'
p3617
S'big'
p3618
tp3619
Rp3620
(dp3621
bag1
(S'\x04\x06h\x80'
p3622
S'big'
p3623
tp3624
Rp3625
(dp3626
bag1
(S'\x04\x06d\x80'
p3627
S'big'
p3628
tp3629
Rp3630
(dp3631
bag1
(S'\x04\x06P\x80'
p3632
S'big'
p3633
tp3634
Rp3635
(dp3636
bag1
(S'\x04\x06X\x80'
p3637
S'big'
p3638
tp3639
Rp3640
(dp3641
bag1
(S'\x04\x06T\x80'
p3642
S'big'
p3643
tp3644
Rp3645
(dp3646
bag1
(S'\x04\x06@\xa0'
p3647
S'big'
p3648
tp3649
Rp3650
(dp3651
bag1
(S'\x04\x06H\xa0'
p3652
S'big'
p3653
tp3654
Rp3655
(dp3656
bag1
(S'\x04\x06D\xa0'
p3657
S'big'
p3658
tp3659
Rp3660
(dp3661
bag1
(S'\x04\x06`\xa0'
p3662
S'big'
p3663
tp3664
Rp3665
(dp3666
bag1
(S'\x04\x06h\xa0'
p3667
S'big'
p3668
tp3669
Rp3670
(dp3671
bag1
(S'\x04\x06d\xa0'
p3672
S'big'
p3673
tp3674
Rp3675
(dp3676
bag1
(S'\x04\x06P\xa0'
p3677
S'big'
p3678
tp3679
Rp3680
(dp3681
bag1
(S'\x04\x06X\xa0'
p3682
S'big'
p3683
tp3684
Rp3685
(dp3686
bag1
(S'\x04\x06T\xa0'
p3687
S'big'
p3688
tp3689
Rp3690
(dp3691
bag1
(S'\x04\x06@\x90'
p3692
S'big'
p3693
tp3694
Rp3695
(dp3696
bag1
(S'\x04\x06H\x90'
p3697
S'big'
p3698
tp3699
Rp3700
(dp3701
bag1
(S'\x04\x06D\x90'
p3702
S'big'
p3703
tp3704
Rp3705
(dp3706
bag1
(S'\x04\x06`\x90'
p3707
S'big'
p3708
tp3709
Rp3710
(dp3711
bag1
(S'\x04\x06h\x90'
p3712
S'big'
p3713
tp3714
Rp3715
(dp3716
bag1
(S'\x04\x06d\x90'
p3717
S'big'
p3718
tp3719
Rp3720
(dp3721
bag1
(S'\x04\x06P\x90'
p3722
S'big'
p3723
tp3724
Rp3725
(dp3726
bag1
(S'\x04\x06X\x90'
p3727
S'big'
p3728
tp3729
Rp3730
(dp3731
bag1
(S'\x04\x06T\x90'
p3732
S'big'
p3733
tp3734
Rp3735
(dp3736
bag1
(S'\x04\x06@P'
p3737
S'big'
p3738
tp3739
Rp3740
(dp3741
bag1
(S'\x04\x06HP'
p3742
S'big'
p3743
tp3744
Rp3745
(dp3746
bag1
(S'\x04\x06DP'
p3747
S'big'
p3748
tp3749
Rp3750
(dp3751
bag1
(S'\x04\x06`P'
p3752
S'big'
p3753
tp3754
Rp3755
(dp3756
bag1
(S'\x04\x06hP'
p3757
S'big'
p3758
tp3759
Rp3760
(dp3761
bag1
(S'\x04\x06dP'
p3762
S'big'
p3763
tp3764
Rp3765
(dp3766
bag1
(S'\x04\x06PP'
p3767
S'big'
p3768
tp3769
Rp3770
(dp3771
bag1
(S'\x04\x06XP'
p3772
S'big'
p3773
tp3774
Rp3775
(dp3776
bag1
(S'\x04\x06TP'
p3777
S'big'
p3778
tp3779
Rp3780
(dp3781
bag1
(S'\x04\x01I\x00'
p3782
S'big'
p3783
tp3784
Rp3785
(dp3786
bag1
(S'\x04\x01I@'
p3787
S'big'
p3788
tp3789
Rp3790
(dp3791
bag1
(S'\x04\x01IP'
p3792
S'big'
p3793
tp3794
Rp3795
(dp3796
bag1
(S'\x04\x01I`'
p3797
S'big'
p3798
tp3799
Rp3800
(dp3801
bag1
(S'\x04\x01I\x80'
p3802
S'big'
p3803
tp3804
Rp3805
(dp3806
bag1
(S'\x04\x01I\x90'
p3807
S'big'
p3808
tp3809
Rp3810
(dp3811
bag1
(S'\x04\x01I\xa0'
p3812
S'big'
p3813
tp3814
Rp3815
(dp3816
bag1
(S'\x04\x01Y\x00'
p3817
S'big'
p3818
tp3819
Rp3820
(dp3821
bag1
(S'\x04\x01Y\x10'
p3822
S'big'
p3823
tp3824
Rp3825
(dp3826
bag1
(S'\x04\x01Y '
p3827
S'big'
p3828
tp3829
Rp3830
(dp3831
bag1
(S'\x04\x01Y@'
p3832
S'big'
p3833
tp3834
Rp3835
(dp3836
bag1
(S'\x04\x01Y\x80'
p3837
S'big'
p3838
tp3839
Rp3840
(dp3841
bag1
(S'\x04\x01a\x00'
p3842
S'big'
p3843
tp3844
Rp3845
(dp3846
bag1
(S'\x04\x01a\x10'
p3847
S'big'
p3848
tp3849
Rp3850
(dp3851
bag1
(S'\x04\x01a '
p3852
S'big'
p3853
tp3854
Rp3855
(dp3856
bag1
(S'\x04\x01aP'
p3857
S'big'
p3858
tp3859
Rp3860
(dp3861
bag1
(S'\x04\x01a`'
p3862
S'big'
p3863
tp3864
Rp3865
(dp3866
bag1
(S'\x04\x01a\x90'
p3867
S'big'
p3868
tp3869
Rp3870
(dp3871
bag1
(S'\x04\x01a\xa0'
p3872
S'big'
p3873
tp3874
Rp3875
(dp3876
bag1
(S'\x04\x01e\x00'
p3877
S'big'
p3878
tp3879
Rp3880
(dp3881
bag1
(S'\x04\x01e\x10'
p3882
S'big'
p3883
tp3884
Rp3885
(dp3886
bag1
(S'\x04\x01e '
p3887
S'big'
p3888
tp3889
Rp3890
(dp3891
bag1
(S'\x04\x01e@'
p3892
S'big'
p3893
tp3894
Rp3895
(dp3896
bag1
(S'\x04\x01e\x80'
p3897
S'big'
p3898
tp3899
Rp3900
(dp3901
bag1
(S'\x04\x01i\x00'
p3902
S'big'
p3903
tp3904
Rp3905
(dp3906
bag1
(S'\x04\x01i\x10'
p3907
S'big'
p3908
tp3909
Rp3910
(dp3911
bag1
(S'\x04\x01i '
p3912
S'big'
p3913
tp3914
Rp3915
(dp3916
bag1
(S'\x04\x01i@'
p3917
S'big'
p3918
tp3919
Rp3920
(dp3921
bag1
(S'\x04\x01i\x80'
p3922
S'big'
p3923
tp3924
Rp3925
(dp3926
bag1
(S'\x02\x15\x14'
p3927
S'big'
p3928
tp3929
Rp3930
(dp3931
bag1
(S'\x02\x15\x10'
p3932
S'big'
p3933
tp3934
Rp3935
(dp3936
bag1
(S'\x02\x15\x04'
p3937
S'big'
p3938
tp3939
Rp3940
(dp3941
bag1
(S'\x02\x15\x00'
p3942
S'big'
p3943
tp3944
Rp3945
(dp3946
bag1
(S'\x02\x14\x14'
p3947
S'big'
p3948
tp3949
Rp3950
(dp3951
bag1
(S'\x02\x14\x10'
p3952
S'big'
p3953
tp3954
Rp3955
(dp3956
bag1
(S'\x02\x14\x04'
p3957
S'big'
p3958
tp3959
Rp3960
(dp3961
bag1
(S'\x02\x14\x00'
p3962
S'big'
p3963
tp3964
Rp3965
(dp3966
bag1
(S'\x04\x06\x01\x00'
p3967
S'big'
p3968
tp3969
Rp3970
(dp3971
bag1
(S'\x04\x06\x01\x10'
p3972
S'big'
p3973
tp3974
Rp3975
(dp3976
bag1
(S'\x04\x06\x01 '
p3977
S'big'
p3978
tp3979
Rp3980
(dp3981
bag1
(S'\x04\x06\x01@'
p3982
S'big'
p3983
tp3984
Rp3985
(dp3986
bag1
(S'\x04\x06\x01P'
p3987
S'big'
p3988
tp3989
Rp3990
(dp3991
bag1
(S'\x04\x06\x01`'
p3992
S'big'
p3993
tp3994
Rp3995
(dp3996
bag1
(S'\x04\x06\x01\x80'
p3997
S'big'
p3998
tp3999
Rp4000
(dp4001
bag1
(S'\x04\x06\x01\x90'
p4002
S'big'
p4003
tp4004
Rp4005
(dp4006
bag1
(S'\x04\x06\x01\xa0'
p4007
S'big'
p4008
tp4009
Rp4010
(dp4011
bag1
(S'\x04\x06\x05\x00'
p4012
S'big'
p4013
tp4014
Rp4015
(dp4016
bag1
(S'\x04\x06\x05\x10'
p4017
S'big'
p4018
tp4019
Rp4020
(dp4021
bag1
(S'\x04\x06\x05 '
p4022
S'big'
p4023
tp4024
Rp4025
(dp4026
bag1
(S'\x04\x06\x05@'
p4027
S'big'
p4028
tp4029
Rp4030
(dp4031
bag1
(S'\x04\x06\x05P'
p4032
S'big'
p4033
tp4034
Rp4035
(dp4036
bag1
(S'\x04\x06\x05`'
p4037
S'big'
p4038
tp4039
Rp4040
(dp4041
bag1
(S'\x04\x06\x05\x80'
p4042
S'big'
p4043
tp4044
Rp4045
(dp4046
bag1
(S'\x04\x06\x05\x90'
p4047
S'big'
p4048
tp4049
Rp4050
(dp4051
bag1
(S'\x04\x06\x05\xa0'
p4052
S'big'
p4053
tp4054
Rp4055
(dp4056
bag1
(S'\x04\x06\x11\x00'
p4057
S'big'
p4058
tp4059
Rp4060
(dp4061
bag1
(S'\x04\x06\x11\x10'
p4062
S'big'
p4063
tp4064
Rp4065
(dp4066
bag1
(S'\x04\x06\x11 '
p4067
S'big'
p4068
tp4069
Rp4070
(dp4071
bag1
(S'\x04\x06\x11@'
p4072
S'big'
p4073
tp4074
Rp4075
(dp4076
bag1
(S'\x04\x06\x11P'
p4077
S'big'
p4078
tp4079
Rp4080
(dp4081
bag1
(S'\x04\x06\x11`'
p4082
S'big'
p4083
tp4084
Rp4085
(dp4086
bag1
(S'\x04\x06\x11\x80'
p4087
S'big'
p4088
tp4089
Rp4090
(dp4091
bag1
(S'\x04\x06\x11\x90'
p4092
S'big'
p4093
tp4094
Rp4095
(dp4096
bag1
(S'\x04\x06\x11\xa0'
p4097
S'big'
p4098
tp4099
Rp4100
(dp4101
bag1
(S'\x04\x06\x15\x00'
p4102
S'big'
p4103
tp4104
Rp4105
(dp4106
bag1
(S'\x04\x06\x15\x10'
p4107
S'big'
p4108
tp4109
Rp4110
(dp4111
bag1
(S'\x04\x06\x15 '
p4112
S'big'
p4113
tp4114
Rp4115
(dp4116
bag1
(S'\x04\x06\x15@'
p4117
S'big'
p4118
tp4119
Rp4120
(dp4121
bag1
(S'\x04\x06\x15P'
p4122
S'big'
p4123
tp4124
Rp4125
(dp4126
bag1
(S'\x04\x06\x15`'
p4127
S'big'
p4128
tp4129
Rp4130
(dp4131
bag1
(S'\x04\x06\x15\x80'
p4132
S'big'
p4133
tp4134
Rp4135
(dp4136
bag1
(S'\x04\x06\x15\x90'
p4137
S'big'
p4138
tp4139
Rp4140
(dp4141
bag1
(S'\x04\x06\x15\xa0'
p4142
S'big'
p4143
tp4144
Rp4145
(dp4146
bag1
(S'\x04\x06!\x00'
p4147
S'big'
p4148
tp4149
Rp4150
(dp4151
bag1
(S'\x04\x06!\x10'
p4152
S'big'
p4153
tp4154
Rp4155
(dp4156
bag1
(S'\x04\x06! '
p4157
S'big'
p4158
tp4159
Rp4160
(dp4161
bag1
(S'\x04\x06!@'
p4162
S'big'
p4163
tp4164
Rp4165
(dp4166
bag1
(S'\x04\x06!P'
p4167
S'big'
p4168
tp4169
Rp4170
(dp4171
bag1
(S'\x04\x06!`'
p4172
S'big'
p4173
tp4174
Rp4175
(dp4176
bag1
(S'\x04\x06!\x80'
p4177
S'big'
p4178
tp4179
Rp4180
(dp4181
bag1
(S'\x04\x06!\x90'
p4182
S'big'
p4183
tp4184
Rp4185
(dp4186
bag1
(S'\x04\x06!\xa0'
p4187
S'big'
p4188
tp4189
Rp4190
(dp4191
bag1
(S'\x04\x06%\x00'
p4192
S'big'
p4193
tp4194
Rp4195
(dp4196
bag1
(S'\x04\x06%\x10'
p4197
S'big'
p4198
tp4199
Rp4200
(dp4201
bag1
(S'\x04\x06% '
p4202
S'big'
p4203
tp4204
Rp4205
(dp4206
bag1
(S'\x04\x06%@'
p4207
S'big'
p4208
tp4209
Rp4210
(dp4211
bag1
(S'\x04\x06%P'
p4212
S'big'
p4213
tp4214
Rp4215
(dp4216
bag1
(S'\x04\x06%`'
p4217
S'big'
p4218
tp4219
Rp4220
(dp4221
bag1
(S'\x04\x06%\x80'
p4222
S'big'
p4223
tp4224
Rp4225
(dp4226
bag1
(S'\x04\x06%\x90'
p4227
S'big'
p4228
tp4229
Rp4230
(dp4231
bag1
(S'\x04\x06%\xa0'
p4232
S'big'
p4233
tp4234
Rp4235
(dp4236
bag1
(S'\x04\x06)\x00'
p4237
S'big'
p4238
tp4239
Rp4240
(dp4241
bag1
(S'\x04\x06)\x10'
p4242
S'big'
p4243
tp4244
Rp4245
(dp4246
bag1
(S'\x04\x06) '
p4247
S'big'
p4248
tp4249
Rp4250
(dp4251
bag1
(S'\x04\x06)@'
p4252
S'big'
p4253
tp4254
Rp4255
(dp4256
bag1
(S'\x04\x06)P'
p4257
S'big'
p4258
tp4259
Rp4260
(dp4261
bag1
(S'\x04\x06)`'
p4262
S'big'
p4263
tp4264
Rp4265
(dp4266
bag1
(S'\x04\x06)\x80'
p4267
S'big'
p4268
tp4269
Rp4270
(dp4271
bag1
(S'\x04\x06)\x90'
p4272
S'big'
p4273
tp4274
Rp4275
(dp4276
bag1
(S'\x04\x06)\xa0'
p4277
S'big'
p4278
tp4279
Rp4280
(dp4281
bag1
(S'\x04\x04\t\x00'
p4282
S'big'
p4283
tp4284
Rp4285
(dp4286
bag1
(S'\x04\x04\t\x10'
p4287
S'big'
p4288
tp4289
Rp4290
(dp4291
bag1
(S'\x04\x04\t '
p4292
S'big'
p4293
tp4294
Rp4295
(dp4296
bag1
(S'\x04\x04\t@'
p4297
S'big'
p4298
tp4299
Rp4300
(dp4301
bag1
(S'\x04\x04\tP'
p4302
S'big'
p4303
tp4304
Rp4305
(dp4306
bag1
(S'\x04\x04\t`'
p4307
S'big'
p4308
tp4309
Rp4310
(dp4311
bag1
(S'\x04\x04\t\x80'
p4312
S'big'
p4313
tp4314
Rp4315
(dp4316
bag1
(S'\x04\x04\t\x90'
p4317
S'big'
p4318
tp4319
Rp4320
(dp4321
bag1
(S'\x04\x04\t\xa0'
p4322
S'big'
p4323
tp4324
Rp4325
(dp4326
bag1
(S'\x04\x04\x19\x00'
p4327
S'big'
p4328
tp4329
Rp4330
(dp4331
bag1
(S'\x04\x04\x19\x10'
p4332
S'big'
p4333
tp4334
Rp4335
(dp4336
bag1
(S'\x04\x04\x19 '
p4337
S'big'
p4338
tp4339
Rp4340
(dp4341
bag1
(S'\x04\x04\x19@'
p4342
S'big'
p4343
tp4344
Rp4345
(dp4346
bag1
(S'\x04\x04\x19P'
p4347
S'big'
p4348
tp4349
Rp4350
(dp4351
bag1
(S'\x04\x04\x19`'
p4352
S'big'
p4353
tp4354
Rp4355
(dp4356
bag1
(S'\x04\x04\x19\x80'
p4357
S'big'
p4358
tp4359
Rp4360
(dp4361
bag1
(S'\x04\x04\x19\x90'
p4362
S'big'
p4363
tp4364
Rp4365
(dp4366
bag1
(S'\x04\x04\x19\xa0'
p4367
S'big'
p4368
tp4369
Rp4370
(dp4371
bag1
(S'\x04\x04!\x00'
p4372
S'big'
p4373
tp4374
Rp4375
(dp4376
bag1
(S'\x04\x04!\x10'
p4377
S'big'
p4378
tp4379
Rp4380
(dp4381
bag1
(S'\x04\x04! '
p4382
S'big'
p4383
tp4384
Rp4385
(dp4386
bag1
(S'\x04\x04!@'
p4387
S'big'
p4388
tp4389
Rp4390
(dp4391
bag1
(S'\x04\x04!P'
p4392
S'big'
p4393
tp4394
Rp4395
(dp4396
bag1
(S'\x04\x04!`'
p4397
S'big'
p4398
tp4399
Rp4400
(dp4401
bag1
(S'\x04\x04!\x80'
p4402
S'big'
p4403
tp4404
Rp4405
(dp4406
bag1
(S'\x04\x04!\x90'
p4407
S'big'
p4408
tp4409
Rp4410
(dp4411
bag1
(S'\x04\x04!\xa0'
p4412
S'big'
p4413
tp4414
Rp4415
(dp4416
bag1
(S'\x04\x04%\x00'
p4417
S'big'
p4418
tp4419
Rp4420
(dp4421
bag1
(S'\x04\x04%\x10'
p4422
S'big'
p4423
tp4424
Rp4425
(dp4426
bag1
(S'\x04\x04% '
p4427
S'big'
p4428
tp4429
Rp4430
(dp4431
bag1
(S'\x04\x04%@'
p4432
S'big'
p4433
tp4434
Rp4435
(dp4436
bag1
(S'\x04\x04%P'
p4437
S'big'
p4438
tp4439
Rp4440
(dp4441
bag1
(S'\x04\x04%`'
p4442
S'big'
p4443
tp4444
Rp4445
(dp4446
bag1
(S'\x04\x04%\x80'
p4447
S'big'
p4448
tp4449
Rp4450
(dp4451
bag1
(S'\x04\x04%\x90'
p4452
S'big'
p4453
tp4454
Rp4455
(dp4456
bag1
(S'\x04\x04%\xa0'
p4457
S'big'
p4458
tp4459
Rp4460
(dp4461
bag1
(S'\x04\x04)\x00'
p4462
S'big'
p4463
tp4464
Rp4465
(dp4466
bag1
(S'\x04\x04)\x10'
p4467
S'big'
p4468
tp4469
Rp4470
(dp4471
bag1
(S'\x04\x04) '
p4472
S'big'
p4473
tp4474
Rp4475
(dp4476
bag1
(S'\x04\x04)@'
p4477
S'big'
p4478
tp4479
Rp4480
(dp4481
bag1
(S'\x04\x04)P'
p4482
S'big'
p4483
tp4484
Rp4485
(dp4486
bag1
(S'\x04\x04)`'
p4487
S'big'
p4488
tp4489
Rp4490
(dp4491
bag1
(S'\x04\x04)\x80'
p4492
S'big'
p4493
tp4494
Rp4495
(dp4496
bag1
(S'\x04\x04)\x90'
p4497
S'big'
p4498
tp4499
Rp4500
(dp4501
bag1
(S'\x04\x04)\xa0'
p4502
S'big'
p4503
tp4504
Rp4505
(dp4506
bag1
(S'\x04\x05\t\x00'
p4507
S'big'
p4508
tp4509
Rp4510
(dp4511
bag1
(S'\x04\x05\t\x10'
p4512
S'big'
p4513
tp4514
Rp4515
(dp4516
bag1
(S'\x04\x05\t '
p4517
S'big'
p4518
tp4519
Rp4520
(dp4521
bag1
(S'\x04\x05\t@'
p4522
S'big'
p4523
tp4524
Rp4525
(dp4526
bag1
(S'\x04\x05\tP'
p4527
S'big'
p4528
tp4529
Rp4530
(dp4531
bag1
(S'\x04\x05\t`'
p4532
S'big'
p4533
tp4534
Rp4535
(dp4536
bag1
(S'\x04\x05\t\x80'
p4537
S'big'
p4538
tp4539
Rp4540
(dp4541
bag1
(S'\x04\x05\t\x90'
p4542
S'big'
p4543
tp4544
Rp4545
(dp4546
bag1
(S'\x04\x05\t\xa0'
p4547
S'big'
p4548
tp4549
Rp4550
(dp4551
bag1
(S'\x04\x05\x19\x00'
p4552
S'big'
p4553
tp4554
Rp4555
(dp4556
bag1
(S'\x04\x05\x19\x10'
p4557
S'big'
p4558
tp4559
Rp4560
(dp4561
bag1
(S'\x04\x05\x19 '
p4562
S'big'
p4563
tp4564
Rp4565
(dp4566
bag1
(S'\x04\x05\x19@'
p4567
S'big'
p4568
tp4569
Rp4570
(dp4571
bag1
(S'\x04\x05\x19P'
p4572
S'big'
p4573
tp4574
Rp4575
(dp4576
bag1
(S'\x04\x05\x19`'
p4577
S'big'
p4578
tp4579
Rp4580
(dp4581
bag1
(S'\x04\x05\x19\x80'
p4582
S'big'
p4583
tp4584
Rp4585
(dp4586
bag1
(S'\x04\x05\x19\x90'
p4587
S'big'
p4588
tp4589
Rp4590
(dp4591
bag1
(S'\x04\x05\x19\xa0'
p4592
S'big'
p4593
tp4594
Rp4595
(dp4596
bag1
(S'\x04\x05!\x00'
p4597
S'big'
p4598
tp4599
Rp4600
(dp4601
bag1
(S'\x04\x05!\x10'
p4602
S'big'
p4603
tp4604
Rp4605
(dp4606
bag1
(S'\x04\x05! '
p4607
S'big'
p4608
tp4609
Rp4610
(dp4611
bag1
(S'\x04\x05!@'
p4612
S'big'
p4613
tp4614
Rp4615
(dp4616
bag1
(S'\x04\x05!P'
p4617
S'big'
p4618
tp4619
Rp4620
(dp4621
bag1
(S'\x04\x05!`'
p4622
S'big'
p4623
tp4624
Rp4625
(dp4626
bag1
(S'\x04\x05!\x80'
p4627
S'big'
p4628
tp4629
Rp4630
(dp4631
bag1
(S'\x04\x05!\x90'
p4632
S'big'
p4633
tp4634
Rp4635
(dp4636
bag1
(S'\x04\x05!\xa0'
p4637
S'big'
p4638
tp4639
Rp4640
(dp4641
bag1
(S'\x04\x05%\x00'
p4642
S'big'
p4643
tp4644
Rp4645
(dp4646
bag1
(S'\x04\x05%\x10'
p4647
S'big'
p4648
tp4649
Rp4650
(dp4651
bag1
(S'\x04\x05% '
p4652
S'big'
p4653
tp4654
Rp4655
(dp4656
bag1
(S'\x04\x05%@'
p4657
S'big'
p4658
tp4659
Rp4660
(dp4661
bag1
(S'\x04\x05%P'
p4662
S'big'
p4663
tp4664
Rp4665
(dp4666
bag1
(S'\x04\x05%`'
p4667
S'big'
p4668
tp4669
Rp4670
(dp4671
bag1
(S'\x04\x05%\x80'
p4672
S'big'
p4673
tp4674
Rp4675
(dp4676
bag1
(S'\x04\x05%\x90'
p4677
S'big'
p4678
tp4679
Rp4680
(dp4681
bag1
(S'\x04\x05%\xa0'
p4682
S'big'
p4683
tp4684
Rp4685
(dp4686
bag1
(S'\x04\x05)\x00'
p4687
S'big'
p4688
tp4689
Rp4690
(dp4691
bag1
(S'\x04\x05)\x10'
p4692
S'big'
p4693
tp4694
Rp4695
(dp4696
bag1
(S'\x04\x05) '
p4697
S'big'
p4698
tp4699
Rp4700
(dp4701
bag1
(S'\x04\x05)@'
p4702
S'big'
p4703
tp4704
Rp4705
(dp4706
bag1
(S'\x04\x05)P'
p4707
S'big'
p4708
tp4709
Rp4710
(dp4711
bag1
(S'\x04\x05)`'
p4712
S'big'
p4713
tp4714
Rp4715
(dp4716
bag1
(S'\x04\x05)\x80'
p4717
S'big'
p4718
tp4719
Rp4720
(dp4721
bag1
(S'\x04\x05)\x90'
p4722
S'big'
p4723
tp4724
Rp4725
(dp4726
bag1
(S'\x04\x05)\xa0'
p4727
S'big'
p4728
tp4729
Rp4730
(dp4731
bag1
(S'\x02\x05@'
p4732
S'big'
p4733
tp4734
Rp4735
(dp4736
bag1
(S'\x02\x05D'
p4737
S'big'
p4738
tp4739
Rp4740
(dp4741
bag1
(S'\x02\x05P'
p4742
S'big'
p4743
tp4744
Rp4745
(dp4746
bag1
(S'\x02\x05T'
p4747
S'big'
p4748
tp4749
Rp4750
(dp4751
bag1
(S'\x02\x04@'
p4752
S'big'
p4753
tp4754
Rp4755
(dp4756
bag1
(S'\x02\x04D'
p4757
S'big'
p4758
tp4759
Rp4760
(dp4761
bag1
(S'\x02\x04P'
p4762
S'big'
p4763
tp4764
Rp4765
(dp4766
bag1
(S'\x02\x04T'
p4767
S'big'
p4768
tp4769
Rp4770
(dp4771
bag1
(S'\x04\x11 \xa0'
p4772
S'big'
p4773
tp4774
Rp4775
(dp4776
bag1
(S'\x04\x11\x08\xa0'
p4777
S'big'
p4778
tp4779
Rp4780
(dp4781
bag1
(S'\x04\x11\x18@'
p4782
S'big'
p4783
tp4784
Rp4785
(dp4786
bag1
(S'\x04\x11 \x90'
p4787
S'big'
p4788
tp4789
Rp4790
(dp4791
bag1
(S'\x04\x11\x18\x80'
p4792
S'big'
p4793
tp4794
Rp4795
(dp4796
bag1
(S'\x04\x11\x18\x10'
p4797
S'big'
p4798
tp4799
Rp4800
(dp4801
bag1
(S'\x04\x11\x08\x90'
p4802
S'big'
p4803
tp4804
Rp4805
(dp4806
bag1
(S'\x04\x11\x18 '
p4807
S'big'
p4808
tp4809
Rp4810
(dp4811
bag1
(S'\x04\x11\x18\x00'
p4812
S'big'
p4813
tp4814
Rp4815
(dp4816
bag1
(S'\x04\x11(\x80'
p4817
S'big'
p4818
tp4819
Rp4820
(dp4821
bag1
(S'\x04\x11$\x80'
p4822
S'big'
p4823
tp4824
Rp4825
(dp4826
bag1
(S'\x04\x11\x08\x80'
p4827
S'big'
p4828
tp4829
Rp4830
(dp4831
bag1
(S'\x04\x11$@'
p4832
S'big'
p4833
tp4834
Rp4835
(dp4836
bag1
(S'\x04\x11 `'
p4837
S'big'
p4838
tp4839
Rp4840
(dp4841
bag1
(S'\x04\x11$\x10'
p4842
S'big'
p4843
tp4844
Rp4845
(dp4846
bag1
(S'\x04\x11\x08`'
p4847
S'big'
p4848
tp4849
Rp4850
(dp4851
bag1
(S'\x04\x11$ '
p4852
S'big'
p4853
tp4854
Rp4855
(dp4856
bag1
(S'\x04\x11$\x00'
p4857
S'big'
p4858
tp4859
Rp4860
(dp4861
bag1
(S'\x04\x11(@'
p4862
S'big'
p4863
tp4864
Rp4865
(dp4866
bag1
(S'\x04\x11 P'
p4867
S'big'
p4868
tp4869
Rp4870
(dp4871
bag1
(S'\x04\x11(\x10'
p4872
S'big'
p4873
tp4874
Rp4875
(dp4876
bag1
(S'\x04\x11\x08P'
p4877
S'big'
p4878
tp4879
Rp4880
(dp4881
bag1
(S'\x04\x11( '
p4882
S'big'
p4883
tp4884
Rp4885
(dp4886
bag1
(S'\x04\x11(\x00'
p4887
S'big'
p4888
tp4889
Rp4890
(dp4891
bag1
(S'\x04\x11 \x10'
p4892
S'big'
p4893
tp4894
Rp4895
(dp4896
bag1
(S'\x04\x11\x08@'
p4897
S'big'
p4898
tp4899
Rp4900
(dp4901
bag1
(S'\x04\x11  '
p4902
S'big'
p4903
tp4904
Rp4905
(dp4906
bag1
(S'\x04\x11 \x00'
p4907
S'big'
p4908
tp4909
Rp4910
(dp4911
bag1
(S'\x04\x11\x08\x00'
p4912
S'big'
p4913
tp4914
Rp4915
(dp4916
bag1
(S'\x04\x01H\x00'
p4917
S'big'
p4918
tp4919
Rp4920
(dp4921
bag1
(S'\x04\x01`\x00'
p4922
S'big'
p4923
tp4924
Rp4925
(dp4926
bag1
(S'\x04\x01h\x00'
p4927
S'big'
p4928
tp4929
Rp4930
(dp4931
bag1
(S'\x04\x01d\x00'
p4932
S'big'
p4933
tp4934
Rp4935
(dp4936
bag1
(S'\x04\x01X\x00'
p4937
S'big'
p4938
tp4939
Rp4940
(dp4941
bag1
(S'\x04\x01H '
p4942
S'big'
p4943
tp4944
Rp4945
(dp4946
bag1
(S'\x04\x01` '
p4947
S'big'
p4948
tp4949
Rp4950
(dp4951
bag1
(S'\x04\x01h '
p4952
S'big'
p4953
tp4954
Rp4955
(dp4956
bag1
(S'\x04\x01d '
p4957
S'big'
p4958
tp4959
Rp4960
(dp4961
bag1
(S'\x04\x01X '
p4962
S'big'
p4963
tp4964
Rp4965
(dp4966
bag1
(S'\x04\x01H\x80'
p4967
S'big'
p4968
tp4969
Rp4970
(dp4971
bag1
(S'\x04\x01`\x80'
p4972
S'big'
p4973
tp4974
Rp4975
(dp4976
bag1
(S'\x04\x01h\x80'
p4977
S'big'
p4978
tp4979
Rp4980
(dp4981
bag1
(S'\x04\x01d\x80'
p4982
S'big'
p4983
tp4984
Rp4985
(dp4986
bag1
(S'\x04\x01X\x80'
p4987
S'big'
p4988
tp4989
Rp4990
(dp4991
bag1
(S'\x04\x01H\xa0'
p4992
S'big'
p4993
tp4994
Rp4995
(dp4996
bag1
(S'\x04\x01`\xa0'
p4997
S'big'
p4998
tp4999
Rp5000
(dp5001
bag1
(S'\x04\x01h\xa0'
p5002
S'big'
p5003
tp5004
Rp5005
(dp5006
bag1
(S'\x04\x01d\xa0'
p5007
S'big'
p5008
tp5009
Rp5010
(dp5011
bag1
(S'\x04\x01X\xa0'
p5012
S'big'
p5013
tp5014
Rp5015
(dp5016
bag1
(S'\x04\x01H@'
p5017
S'big'
p5018
tp5019
Rp5020
(dp5021
bag1
(S'\x04\x01`@'
p5022
S'big'
p5023
tp5024
Rp5025
(dp5026
bag1
(S'\x04\x01h@'
p5027
S'big'
p5028
tp5029
Rp5030
(dp5031
bag1
(S'\x04\x01d@'
p5032
S'big'
p5033
tp5034
Rp5035
(dp5036
bag1
(S'\x04\x01X@'
p5037
S'big'
p5038
tp5039
Rp5040
(dp5041
bag1
(S'\x04\x01H`'
p5042
S'big'
p5043
tp5044
Rp5045
(dp5046
bag1
(S'\x04\x01``'
p5047
S'big'
p5048
tp5049
Rp5050
(dp5051
bag1
(S'\x04\x01h`'
p5052
S'big'
p5053
tp5054
Rp5055
(dp5056
bag1
(S'\x04\x01d`'
p5057
S'big'
p5058
tp5059
Rp5060
(dp5061
bag1
(S'\x04\x01X`'
p5062
S'big'
p5063
tp5064
Rp5065
(dp5066
bag1
(S'\x04\x01HP'
p5067
S'big'
p5068
tp5069
Rp5070
(dp5071
bag1
(S'\x04\x01`P'
p5072
S'big'
p5073
tp5074
Rp5075
(dp5076
bag1
(S'\x04\x01hP'
p5077
S'big'
p5078
tp5079
Rp5080
(dp5081
bag1
(S'\x04\x01dP'
p5082
S'big'
p5083
tp5084
Rp5085
(dp5086
bag1
(S'\x04\x01XP'
p5087
S'big'
p5088
tp5089
Rp5090
(dp5091
bag1
(S'\x04\x11\x19P'
p5092
S'big'
p5093
tp5094
Rp5095
(dp5096
bag1
(S'\x04\x11\x19@'
p5097
S'big'
p5098
tp5099
Rp5100
(dp5101
bag1
(S'\x04\x11\x19`'
p5102
S'big'
p5103
tp5104
Rp5105
(dp5106
bag1
(S'\x04\x11\x19\x00'
p5107
S'big'
p5108
tp5109
Rp5110
(dp5111
bag1
(S'\x04\x11\x19 '
p5112
S'big'
p5113
tp5114
Rp5115
(dp5116
bag1
(S'\x04\x11\x19\x80'
p5117
S'big'
p5118
tp5119
Rp5120
(dp5121
bag1
(S'\x04\x11\x19\xa0'
p5122
S'big'
p5123
tp5124
Rp5125
(dp5126
bag1
(S'\x04\x11\tP'
p5127
S'big'
p5128
tp5129
Rp5130
(dp5131
bag1
(S'\x04\x11\t@'
p5132
S'big'
p5133
tp5134
Rp5135
(dp5136
bag1
(S'\x04\x11\t`'
p5137
S'big'
p5138
tp5139
Rp5140
(dp5141
bag1
(S'\x04\x11\t\x00'
p5142
S'big'
p5143
tp5144
Rp5145
(dp5146
bag1
(S'\x04\x11\t '
p5147
S'big'
p5148
tp5149
Rp5150
(dp5151
bag1
(S'\x04\x11\t\x80'
p5152
S'big'
p5153
tp5154
Rp5155
(dp5156
bag1
(S'\x04\x11\t\xa0'
p5157
S'big'
p5158
tp5159
Rp5160
(dp5161
bag1
(S'\x04\x11%P'
p5162
S'big'
p5163
tp5164
Rp5165
(dp5166
bag1
(S'\x04\x11%@'
p5167
S'big'
p5168
tp5169
Rp5170
(dp5171
bag1
(S'\x04\x11%`'
p5172
S'big'
p5173
tp5174
Rp5175
(dp5176
bag1
(S'\x04\x11%\x00'
p5177
S'big'
p5178
tp5179
Rp5180
(dp5181
bag1
(S'\x04\x11% '
p5182
S'big'
p5183
tp5184
Rp5185
(dp5186
bag1
(S'\x04\x11%\x80'
p5187
S'big'
p5188
tp5189
Rp5190
(dp5191
bag1
(S'\x04\x11%\xa0'
p5192
S'big'
p5193
tp5194
Rp5195
(dp5196
bag1
(S'\x04\x11!P'
p5197
S'big'
p5198
tp5199
Rp5200
(dp5201
bag1
(S'\x04\x11!@'
p5202
S'big'
p5203
tp5204
Rp5205
(dp5206
bag1
(S'\x04\x11!`'
p5207
S'big'
p5208
tp5209
Rp5210
(dp5211
bag1
(S'\x04\x11!\x00'
p5212
S'big'
p5213
tp5214
Rp5215
(dp5216
bag1
(S'\x04\x11! '
p5217
S'big'
p5218
tp5219
Rp5220
(dp5221
bag1
(S'\x04\x11!\x80'
p5222
S'big'
p5223
tp5224
Rp5225
(dp5226
bag1
(S'\x04\x11!\xa0'
p5227
S'big'
p5228
tp5229
Rp5230
(dp5231
bag1
(S'\x04\x11)P'
p5232
S'big'
p5233
tp5234
Rp5235
(dp5236
bag1
(S'\x04\x11)@'
p5237
S'big'
p5238
tp5239
Rp5240
(dp5241
bag1
(S'\x04\x11)`'
p5242
S'big'
p5243
tp5244
Rp5245
(dp5246
bag1
(S'\x04\x11)\x00'
p5247
S'big'
p5248
tp5249
Rp5250
(dp5251
bag1
(S'\x04\x11) '
p5252
S'big'
p5253
tp5254
Rp5255
(dp5256
bag1
(S'\x04\x11)\x80'
p5257
S'big'
p5258
tp5259
Rp5260
(dp5261
bag1
(S'\x04\x11)\xa0'
p5262
S'big'
p5263
tp5264
Rp5265
(dp5266
bag1
(S'\x00\x10'
p5267
S'big'
p5268
tp5269
Rp5270
(dp5271
ba.